Component: ARM Compiler 5.06 update 7 (build 960) Tool: armlink [4d3601]

==============================================================================

Section Cross References

    stm32f103xb_bl.o(.constdata) refers to stm32f103xb_bl.o(.data) for target_device
    stm32f103xb_bl.o(.data) refers to stm32f103xb_bl.o(.constdata) for sectors_info
    circ_buf.o(i.circ_buf_count_free) refers to circ_buf.o(i.circ_buf_count_used) for circ_buf_count_used
    circ_buf.o(i.circ_buf_pop) refers to util.o(i._util_assert) for _util_assert
    circ_buf.o(i.circ_buf_pop_n) refers to util.o(i._util_assert) for _util_assert
    circ_buf.o(i.circ_buf_push) refers to util.o(i._util_assert) for _util_assert
    circ_buf.o(i.circ_buf_read) refers to circ_buf.o(i.circ_buf_count_used) for circ_buf_count_used
    circ_buf.o(i.circ_buf_read) refers to circ_buf.o(i.circ_buf_pop) for circ_buf_pop
    circ_buf.o(i.circ_buf_write) refers to circ_buf.o(i.circ_buf_count_free) for circ_buf_count_free
    circ_buf.o(i.circ_buf_write) refers to circ_buf.o(i.circ_buf_push) for circ_buf_push
    crc32.o(i.crc32) refers to crc32.o(i.reflect) for reflect
    crc32.o(i.crc32_continue) refers to crc32.o(i.reflect) for reflect
    error.o(i.error_get_string) refers to util.o(i._util_assert) for _util_assert
    error.o(i.error_get_string) refers to error.o(.constdata) for .constdata
    error.o(i.error_get_type) refers to error.o(.data) for .data
    error.o(.constdata) refers to error.o(.conststring) for .conststring
    flash_hal.o(i.flash_erase_sector) refers to flash.o(i.EraseSector) for EraseSector
    flash_hal.o(i.flash_program_page) refers to flash.o(i.ProgramPage) for ProgramPage
    hardfault_handler.o(i.HardFault_Handler) refers to hardfault_handler.o(i._fault_handler) for _fault_handler
    hardfault_handler.o(i._fault_handler) refers to settings.o(i.config_ram_add_hexdump) for config_ram_add_hexdump
    hardfault_handler.o(i._fault_handler) refers to util.o(i._util_assert) for _util_assert
    hardfault_handler.o(i._fault_handler) refers to cortex_m.o(i.SystemReset) for SystemReset
    info.o(i.info_crc_compute) refers to flash_hal.o(i.flash_is_readable) for flash_is_readable
    info.o(i.info_crc_compute) refers to crc32.o(i.crc32) for crc32
    info.o(i.info_crc_compute) refers to info.o(.data) for .data
    info.o(i.info_get_board_id) refers to info.o(.data) for .data
    info.o(i.info_get_bootloader_present) refers to flash_hal.o(i.flash_is_readable) for flash_is_readable
    info.o(i.info_get_bootloader_version) refers to info.o(i.info_get_bootloader_present) for info_get_bootloader_present
    info.o(i.info_get_crc_bootloader) refers to info.o(.data) for .data
    info.o(i.info_get_crc_config_user) refers to info.o(.data) for .data
    info.o(i.info_get_crc_interface) refers to info.o(.data) for .data
    info.o(i.info_get_hic_id) refers to info.o(.bss) for .bss
    info.o(i.info_get_host_id) refers to info.o(.bss) for .bss
    info.o(i.info_get_interface_present) refers to flash_hal.o(i.flash_is_readable) for flash_is_readable
    info.o(i.info_get_interface_version) refers to info.o(i.info_get_interface_present) for info_get_interface_present
    info.o(i.info_get_mac) refers to info.o(.bss) for .bss
    info.o(i.info_get_target_id) refers to info.o(.bss) for .bss
    info.o(i.info_get_unique_id) refers to info.o(.bss) for .bss
    info.o(i.info_get_unique_id_string_descriptor) refers to info.o(.bss) for .bss
    info.o(i.info_get_version) refers to info.o(.data) for .data
    info.o(i.info_init) refers to info.o(i.info_crc_compute) for info_crc_compute
    info.o(i.info_init) refers to read_uid.o(i.read_unique_id) for read_unique_id
    info.o(i.info_init) refers to info.o(i.setup_basics) for setup_basics
    info.o(i.info_init) refers to rt_memclr_w.o(.text) for __aeabi_memclr4
    info.o(i.info_init) refers to strcat.o(.text) for strcat
    info.o(i.info_init) refers to strlen.o(.text) for strlen
    info.o(i.info_init) refers to info.o(.bss) for .bss
    info.o(i.info_init) refers to info.o(.data) for .data
    info.o(i.info_set_uuid_target) refers to util.o(i.util_write_hex16) for util_write_hex16
    info.o(i.info_set_uuid_target) refers to util.o(i.util_write_hex32) for util_write_hex32
    info.o(i.info_set_uuid_target) refers to info.o(.bss) for .bss
    info.o(i.setup_basics) refers to target_board.o(i.get_family_id) for get_family_id
    info.o(i.setup_basics) refers to rt_memclr.o(.text) for __aeabi_memclr
    info.o(i.setup_basics) refers to rt_memclr_w.o(.text) for __aeabi_memclr4
    info.o(i.setup_basics) refers to util.o(i.util_write_hex32) for util_write_hex32
    info.o(i.setup_basics) refers to target_board.o(i.get_board_id) for get_board_id
    info.o(i.setup_basics) refers to info.o(i.hex_to_ascii) for hex_to_ascii
    info.o(i.setup_basics) refers to info.o(.data) for .data
    info.o(i.setup_basics) refers to info.o(.bss) for .bss
    main_bootloader.o(i.USBD_SignalHandler) refers to cmsis_os2_port.o(i.osThreadFlagsSet) for osThreadFlagsSet
    main_bootloader.o(i.USBD_SignalHandler) refers to main_bootloader.o(.data) for .data
    main_bootloader.o(i.main) refers to sdk.o(i.sdk_init) for sdk_init
    main_bootloader.o(i.main) refers to gpio.o(i.gpio_init) for gpio_init
    main_bootloader.o(i.main) refers to settings.o(i.config_init) for config_init
    main_bootloader.o(i.main) refers to main_bootloader.o(i.board_bootloader_init) for board_bootloader_init
    main_bootloader.o(i.main) refers to main_bootloader.o(i.reset_button_pressed) for reset_button_pressed
    main_bootloader.o(i.main) refers to validation.o(i.validate_bin_nvic) for validate_bin_nvic
    main_bootloader.o(i.main) refers to settings.o(i.config_ram_get_initial_hold_in_bl) for config_ram_get_initial_hold_in_bl
    main_bootloader.o(i.main) refers to main_bootloader.o(.emb_text) for modify_stack_pointer_and_start_app
    main_bootloader.o(i.main) refers to cmsis_os2_port.o(i.osKernelInitialize) for osKernelInitialize
    main_bootloader.o(i.main) refers to cmsis_os2_port.o(i.osThreadNew) for osThreadNew
    main_bootloader.o(i.main) refers to cmsis_os2_port.o(i.osKernelStart) for osKernelStart
    main_bootloader.o(i.main) refers to stm32f103xb_bl.o(.constdata) for g_board_info
    main_bootloader.o(i.main) refers to main_bootloader.o(i.main_task) for main_task
    main_bootloader.o(i.main_blink_msc_led) refers to main_bootloader.o(.data) for .data
    main_bootloader.o(i.main_task) refers to settings.o(i.config_ram_get_initial_hold_in_bl) for config_ram_get_initial_hold_in_bl
    main_bootloader.o(i.main_task) refers to cmsis_os2_port.o(i.osDelay) for osDelay
    main_bootloader.o(i.main_task) refers to cmsis_os2_port.o(i.osThreadGetId) for osThreadGetId
    main_bootloader.o(i.main_task) refers to gpio.o(i.gpio_set_hid_led) for gpio_set_hid_led
    main_bootloader.o(i.main_task) refers to gpio.o(i.gpio_set_cdc_led) for gpio_set_cdc_led
    main_bootloader.o(i.main_task) refers to gpio.o(i.gpio_set_msc_led) for gpio_set_msc_led
    main_bootloader.o(i.main_task) refers to info.o(i.info_init) for info_init
    main_bootloader.o(i.main_task) refers to usbd_core.o(i.usbd_init) for usbd_init
    main_bootloader.o(i.main_task) refers to vfs_manager.o(i.vfs_mngr_init) for vfs_mngr_init
    main_bootloader.o(i.main_task) refers to usbd_core.o(i.usbd_connect) for usbd_connect
    main_bootloader.o(i.main_task) refers to cmsis_os2_port.o(i.osTimerNew) for osTimerNew
    main_bootloader.o(i.main_task) refers to cmsis_os2_port.o(i.osTimerStart) for osTimerStart
    main_bootloader.o(i.main_task) refers to cmsis_os2_port.o(i.osThreadFlagsWait) for osThreadFlagsWait
    main_bootloader.o(i.main_task) refers to usbd_stm32f103.o(i.USBD_Handler) for USBD_Handler
    main_bootloader.o(i.main_task) refers to vfs_manager.o(i.vfs_mngr_periodic) for vfs_mngr_periodic
    main_bootloader.o(i.main_task) refers to usbd_core.o(i.usbd_configured) for usbd_configured
    main_bootloader.o(i.main_task) refers to cortex_m.o(i.SystemReset) for SystemReset
    main_bootloader.o(i.main_task) refers to main_bootloader.o(.data) for .data
    main_bootloader.o(i.main_task) refers to main_bootloader.o(i.timer_task_30mS) for timer_task_30mS
    main_bootloader.o(i.reset_button_pressed) refers to gpio.o(i.gpio_get_reset_btn_no_fwrd) for gpio_get_reset_btn_no_fwrd
    main_bootloader.o(i.reset_button_pressed) refers to gpio.o(i.gpio_get_reset_btn_fwrd) for gpio_get_reset_btn_fwrd
    main_bootloader.o(i.timer_task_30mS) refers to cmsis_os2_port.o(i.osThreadFlagsSet) for osThreadFlagsSet
    main_bootloader.o(i.timer_task_30mS) refers to main_bootloader.o(.data) for .data
    util.o(i._util_assert) refers to settings.o(i.config_ram_get_assert) for config_ram_get_assert
    util.o(i._util_assert) refers to settings.o(i.config_ram_set_assert) for config_ram_set_assert
    util.o(i._util_assert) refers to vfs_manager.o(i.vfs_mngr_fs_remount) for vfs_mngr_fs_remount
    util.o(i.util_assert_clear) refers to settings.o(i.config_ram_clear_assert) for config_ram_clear_assert
    util.o(i.util_write_hex16) refers to util.o(i.util_write_hex8) for util_write_hex8
    util.o(i.util_write_hex32) refers to util.o(i.util_write_hex8) for util_write_hex8
    util.o(i.util_write_hex8) refers to util.o(.constdata) for .constdata
    util.o(i.util_write_in_region) refers to rt_memcpy_v6.o(.text) for __aeabi_memcpy
    util.o(i.util_write_string_in_region) refers to strlen.o(.text) for strlen
    util.o(i.util_write_string_in_region) refers to util.o(i.util_write_in_region) for util_write_in_region
    util.o(i.util_write_uint32_zp) refers to util.o(i.util_write_uint32) for util_write_uint32
    util.o(i.util_write_uint32_zp) refers to aeabi_memset.o(.text) for __aeabi_memset
    validation.o(i.validate_bin_nvic) refers to validation.o(i.validate_bin_nvic_base) for validate_bin_nvic_base
    validation.o(i.validate_bin_nvic) refers to stm32f103xb_bl.o(.data) for g_target_family
    validation.o(i.validate_bin_nvic_base) refers to validation.o(i.test_range) for test_range
    validation.o(i.validate_bin_nvic_base) refers to stm32f103xb_bl.o(.constdata) for g_board_info
    validation.o(i.validate_hexfile) refers to stm32f103xb_bl.o(.data) for g_target_family
    file_stream.o(i.close_bin) refers to flash_decoder.o(i.flash_decoder_close) for flash_decoder_close
    file_stream.o(i.close_hex) refers to flash_decoder.o(i.flash_decoder_close) for flash_decoder_close
    file_stream.o(i.detect_bin) refers to flash_decoder.o(i.flash_decoder_detect_type) for flash_decoder_detect_type
    file_stream.o(i.detect_hex) refers to validation.o(i.validate_hexfile) for validate_hexfile
    file_stream.o(i.open_bin) refers to flash_decoder.o(i.flash_decoder_open) for flash_decoder_open
    file_stream.o(i.open_hex) refers to rt_memclr.o(.text) for __aeabi_memclr
    file_stream.o(i.open_hex) refers to intelhex.o(i.reset_hex_parser) for reset_hex_parser
    file_stream.o(i.open_hex) refers to flash_decoder.o(i.flash_decoder_open) for flash_decoder_open
    file_stream.o(i.stream_close) refers to file_stream.o(i.stream_thread_assert) for stream_thread_assert
    file_stream.o(i.stream_close) refers to util.o(i._util_assert) for _util_assert
    file_stream.o(i.stream_close) refers to file_stream.o(.data) for .data
    file_stream.o(i.stream_close) refers to file_stream.o(.bss) for .bss
    file_stream.o(i.stream_open) refers to util.o(i._util_assert) for _util_assert
    file_stream.o(i.stream_open) refers to cmsis_os2_port.o(i.osThreadGetId) for osThreadGetId
    file_stream.o(i.stream_open) refers to rt_memclr_w.o(.text) for __aeabi_memclr4
    file_stream.o(i.stream_open) refers to file_stream.o(.data) for .data
    file_stream.o(i.stream_open) refers to file_stream.o(.bss) for .bss
    file_stream.o(i.stream_start_identify) refers to file_stream.o(.data) for .data
    file_stream.o(i.stream_thread_assert) refers to cmsis_os2_port.o(i.osThreadGetId) for osThreadGetId
    file_stream.o(i.stream_thread_assert) refers to util.o(i._util_assert) for _util_assert
    file_stream.o(i.stream_thread_assert) refers to file_stream.o(.data) for .data
    file_stream.o(i.stream_type_from_name) refers to strncmp.o(.text) for strncmp
    file_stream.o(i.stream_write) refers to util.o(i._util_assert) for _util_assert
    file_stream.o(i.stream_write) refers to file_stream.o(i.stream_thread_assert) for stream_thread_assert
    file_stream.o(i.stream_write) refers to file_stream.o(.data) for .data
    file_stream.o(i.stream_write) refers to file_stream.o(.bss) for .bss
    file_stream.o(i.write_bin) refers to rt_memcpy_v6.o(.text) for __aeabi_memcpy
    file_stream.o(i.write_bin) refers to flash_decoder.o(i.flash_decoder_detect_type) for flash_decoder_detect_type
    file_stream.o(i.write_bin) refers to flash_decoder.o(i.flash_decoder_get_flash) for flash_decoder_get_flash
    file_stream.o(i.write_bin) refers to flash_decoder.o(i.flash_decoder_write) for flash_decoder_write
    file_stream.o(i.write_hex) refers to intelhex.o(i.parse_hex_blob) for parse_hex_blob
    file_stream.o(i.write_hex) refers to flash_decoder.o(i.flash_decoder_write) for flash_decoder_write
    file_stream.o(i.write_hex) refers to util.o(i._util_assert) for _util_assert
    file_stream.o(.data) refers to file_stream.o(i.detect_bin) for detect_bin
    file_stream.o(.data) refers to file_stream.o(i.open_bin) for open_bin
    file_stream.o(.data) refers to file_stream.o(i.write_bin) for write_bin
    file_stream.o(.data) refers to file_stream.o(i.close_bin) for close_bin
    file_stream.o(.data) refers to file_stream.o(i.detect_hex) for detect_hex
    file_stream.o(.data) refers to file_stream.o(i.open_hex) for open_hex
    file_stream.o(.data) refers to file_stream.o(i.write_hex) for write_hex
    file_stream.o(.data) refers to file_stream.o(i.close_hex) for close_hex
    flash_decoder.o(i.flash_decoder_close) refers to flash_manager.o(i.flash_manager_uninit) for flash_manager_uninit
    flash_decoder.o(i.flash_decoder_close) refers to util.o(i._util_assert) for _util_assert
    flash_decoder.o(i.flash_decoder_close) refers to flash_decoder.o(.data) for .data
    flash_decoder.o(i.flash_decoder_detect_type) refers to util.o(i._util_assert) for _util_assert
    flash_decoder.o(i.flash_decoder_detect_type) refers to validation.o(i.validate_bin_nvic) for validate_bin_nvic
    flash_decoder.o(i.flash_decoder_detect_type) refers to flash_decoder.o(.data) for .data
    flash_decoder.o(i.flash_decoder_get_flash) refers to settings_rom_stub.o(i.config_get_automation_allowed) for config_get_automation_allowed
    flash_decoder.o(i.flash_decoder_get_flash) refers to util.o(i._util_assert) for _util_assert
    flash_decoder.o(i.flash_decoder_get_flash) refers to iap_flash_intf.o(.constdata) for flash_intf_iap_protected
    flash_decoder.o(i.flash_decoder_is_at_end) refers to flash_decoder.o(.data) for .data
    flash_decoder.o(i.flash_decoder_is_at_end) refers to stm32f103xb_bl.o(.constdata) for g_board_info
    flash_decoder.o(i.flash_decoder_open) refers to util.o(i._util_assert) for _util_assert
    flash_decoder.o(i.flash_decoder_open) refers to aeabi_memset.o(.text) for __aeabi_memset
    flash_decoder.o(i.flash_decoder_open) refers to flash_decoder.o(.data) for .data
    flash_decoder.o(i.flash_decoder_open) refers to flash_decoder.o(.bss) for .bss
    flash_decoder.o(i.flash_decoder_write) refers to util.o(i._util_assert) for _util_assert
    flash_decoder.o(i.flash_decoder_write) refers to rt_memcpy_v6.o(.text) for __aeabi_memcpy
    flash_decoder.o(i.flash_decoder_write) refers to flash_decoder.o(i.flash_decoder_detect_type) for flash_decoder_detect_type
    flash_decoder.o(i.flash_decoder_write) refers to flash_decoder.o(i.flash_decoder_get_flash) for flash_decoder_get_flash
    flash_decoder.o(i.flash_decoder_write) refers to settings_rom_stub.o(i.config_get_detect_incompatible_target) for config_get_detect_incompatible_target
    flash_decoder.o(i.flash_decoder_write) refers to flash_decoder.o(i.flash_decoder_validate_target_image) for flash_decoder_validate_target_image
    flash_decoder.o(i.flash_decoder_write) refers to flash_manager.o(i.flash_manager_init) for flash_manager_init
    flash_decoder.o(i.flash_decoder_write) refers to flash_manager.o(i.flash_manager_data) for flash_manager_data
    flash_decoder.o(i.flash_decoder_write) refers to flash_decoder.o(i.flash_decoder_is_at_end) for flash_decoder_is_at_end
    flash_decoder.o(i.flash_decoder_write) refers to flash_decoder.o(.data) for .data
    flash_decoder.o(i.flash_decoder_write) refers to flash_decoder.o(.bss) for .bss
    flash_manager.o(i.flash_manager_data) refers to util.o(i._util_assert) for _util_assert
    flash_manager.o(i.flash_manager_data) refers to flash_manager.o(i.setup_next_sector) for setup_next_sector
    flash_manager.o(i.flash_manager_data) refers to flash_manager.o(i.flush_current_block) for flush_current_block
    flash_manager.o(i.flash_manager_data) refers to rt_memcpy_v6.o(.text) for __aeabi_memcpy
    flash_manager.o(i.flash_manager_data) refers to flash_manager.o(.data) for .data
    flash_manager.o(i.flash_manager_data) refers to flash_manager.o(.bss) for .bss
    flash_manager.o(i.flash_manager_init) refers to aeabi_memset.o(.text) for __aeabi_memset
    flash_manager.o(i.flash_manager_init) refers to util.o(i._util_assert) for _util_assert
    flash_manager.o(i.flash_manager_init) refers to flash_manager.o(.data) for .data
    flash_manager.o(i.flash_manager_init) refers to flash_manager.o(.bss) for .bss
    flash_manager.o(i.flash_manager_set_page_erase) refers to settings.o(i.config_ram_set_page_erase) for config_ram_set_page_erase
    flash_manager.o(i.flash_manager_set_page_erase) refers to flash_manager.o(.data) for .data
    flash_manager.o(i.flash_manager_uninit) refers to util.o(i._util_assert) for _util_assert
    flash_manager.o(i.flash_manager_uninit) refers to flash_manager.o(i.flush_current_block) for flush_current_block
    flash_manager.o(i.flash_manager_uninit) refers to aeabi_memset.o(.text) for __aeabi_memset
    flash_manager.o(i.flash_manager_uninit) refers to flash_manager.o(.data) for .data
    flash_manager.o(i.flash_manager_uninit) refers to flash_manager.o(.bss) for .bss
    flash_manager.o(i.flush_current_block) refers to aeabi_memset.o(.text) for __aeabi_memset
    flash_manager.o(i.flush_current_block) refers to flash_manager.o(.data) for .data
    flash_manager.o(i.flush_current_block) refers to flash_manager.o(.bss) for .bss
    flash_manager.o(i.setup_next_sector) refers to util.o(i._util_assert) for _util_assert
    flash_manager.o(i.setup_next_sector) refers to aeabi_memset.o(.text) for __aeabi_memset
    flash_manager.o(i.setup_next_sector) refers to flash_manager.o(.data) for .data
    flash_manager.o(i.setup_next_sector) refers to flash_manager.o(.bss) for .bss
    iap_flash_intf.o(i.critical_erase_and_program) refers to util.o(i._util_assert) for _util_assert
    iap_flash_intf.o(i.critical_erase_and_program) refers to flash_hal.o(i.flash_erase_sector) for flash_erase_sector
    iap_flash_intf.o(i.critical_erase_and_program) refers to flash_hal.o(i.flash_program_page) for flash_program_page
    iap_flash_intf.o(i.erase_chip) refers to util.o(i._util_assert) for _util_assert
    iap_flash_intf.o(i.erase_chip) refers to iap_flash_intf.o(i.erase_sector) for erase_sector
    iap_flash_intf.o(i.erase_chip) refers to iap_flash_intf.o(.data) for .data
    iap_flash_intf.o(i.erase_sector) refers to util.o(i._util_assert) for _util_assert
    iap_flash_intf.o(i.erase_sector) refers to flash_hal.o(i.flash_erase_sector) for flash_erase_sector
    iap_flash_intf.o(i.erase_sector) refers to iap_flash_intf.o(.data) for .data
    iap_flash_intf.o(i.init) refers to util.o(i._util_assert) for _util_assert
    iap_flash_intf.o(i.init) refers to flash.o(i.Init) for Init
    iap_flash_intf.o(i.init) refers to rt_memclr.o(.text) for __aeabi_memclr
    iap_flash_intf.o(i.init) refers to iap_flash_intf.o(.data) for .data
    iap_flash_intf.o(i.init) refers to iap_flash_intf.o(.bss) for .bss
    iap_flash_intf.o(i.intercept_page_write) refers to util.o(i._util_assert) for _util_assert
    iap_flash_intf.o(i.intercept_page_write) refers to iap_flash_intf.o(.data) for .data
    iap_flash_intf.o(i.program_page) refers to util.o(i._util_assert) for _util_assert
    iap_flash_intf.o(i.program_page) refers to iap_flash_intf.o(i.intercept_page_write) for intercept_page_write
    iap_flash_intf.o(i.program_page) refers to flash_hal.o(i.flash_program_page) for flash_program_page
    iap_flash_intf.o(i.program_page) refers to info.o(i.info_crc_compute) for info_crc_compute
    iap_flash_intf.o(i.program_page) refers to iap_flash_intf.o(.data) for .data
    iap_flash_intf.o(i.target_flash_busy) refers to iap_flash_intf.o(.data) for .data
    iap_flash_intf.o(i.uninit) refers to flash.o(i.UnInit) for UnInit
    iap_flash_intf.o(i.uninit) refers to util.o(i._util_assert) for _util_assert
    iap_flash_intf.o(i.uninit) refers to iap_flash_intf.o(.data) for .data
    iap_flash_intf.o(.constdata) refers to iap_flash_intf.o(i.init) for init
    iap_flash_intf.o(.constdata) refers to iap_flash_intf.o(i.uninit) for uninit
    iap_flash_intf.o(.constdata) refers to iap_flash_intf.o(i.program_page) for program_page
    iap_flash_intf.o(.constdata) refers to iap_flash_intf.o(i.erase_sector) for erase_sector
    iap_flash_intf.o(.constdata) refers to iap_flash_intf.o(i.erase_chip) for erase_chip
    iap_flash_intf.o(.constdata) refers to iap_flash_intf.o(i.program_page_min_size) for program_page_min_size
    iap_flash_intf.o(.constdata) refers to iap_flash_intf.o(i.erase_sector_size) for erase_sector_size
    iap_flash_intf.o(.constdata) refers to iap_flash_intf.o(i.target_flash_busy) for target_flash_busy
    iap_flash_intf.o(.constdata) refers to iap_flash_intf.o(.constdata) for flash_intf
    intelhex.o(i.parse_hex_blob) refers to rt_memcpy_v6.o(.text) for __aeabi_memcpy
    intelhex.o(i.parse_hex_blob) refers to rt_memclr.o(.text) for __aeabi_memclr
    intelhex.o(i.parse_hex_blob) refers to aeabi_memset.o(.text) for __aeabi_memset
    intelhex.o(i.parse_hex_blob) refers to intelhex.o(.data) for .data
    intelhex.o(i.parse_hex_blob) refers to intelhex.o(.bss) for .bss
    intelhex.o(i.reset_hex_parser) refers to rt_memclr.o(.text) for __aeabi_memclr
    intelhex.o(i.reset_hex_parser) refers to intelhex.o(.bss) for .bss
    intelhex.o(i.reset_hex_parser) refers to intelhex.o(.data) for .data
    vfs_manager.o(i.build_filesystem) refers to rt_memcpy_w.o(.text) for __aeabi_memcpy4
    vfs_manager.o(i.build_filesystem) refers to vfs_user.o(i.vfs_user_build_filesystem) for vfs_user_build_filesystem
    vfs_manager.o(i.build_filesystem) refers to virtual_fs.o(i.vfs_set_file_change_callback) for vfs_set_file_change_callback
    vfs_manager.o(i.build_filesystem) refers to virtual_fs.o(i.vfs_get_total_size) for vfs_get_total_size
    vfs_manager.o(i.build_filesystem) refers to vfs_manager.o(.constdata) for .constdata
    vfs_manager.o(i.build_filesystem) refers to vfs_manager.o(.bss) for .bss
    vfs_manager.o(i.build_filesystem) refers to vfs_manager.o(i.file_change_handler) for file_change_handler
    vfs_manager.o(i.build_filesystem) refers to usbd_msc.o(.data) for USBD_MSC_MemorySize
    vfs_manager.o(i.build_filesystem) refers to usbd_msc.o(.data) for USBD_MSC_BlockSize
    vfs_manager.o(i.changing_state) refers to vfs_manager.o(.data) for .data
    vfs_manager.o(i.file_change_handler) refers to vfs_user.o(i.vfs_user_file_change_handler) for vfs_user_file_change_handler
    vfs_manager.o(i.file_change_handler) refers to virtual_fs.o(i.vfs_file_get_size) for vfs_file_get_size
    vfs_manager.o(i.file_change_handler) refers to virtual_fs.o(i.vfs_file_get_start_sector) for vfs_file_get_start_sector
    vfs_manager.o(i.file_change_handler) refers to file_stream.o(i.stream_type_from_name) for stream_type_from_name
    vfs_manager.o(i.file_change_handler) refers to virtual_fs.o(i.vfs_file_get_attr) for vfs_file_get_attr
    vfs_manager.o(i.file_change_handler) refers to vfs_manager.o(i.transfer_update_file_info) for transfer_update_file_info
    vfs_manager.o(i.file_change_handler) refers to rt_memcpy_w.o(.text) for __aeabi_memcpy4
    vfs_manager.o(i.file_change_handler) refers to vfs_manager.o(i.sync_lock) for sync_lock
    vfs_manager.o(i.file_change_handler) refers to vfs_manager.o(i.sync_unlock) for sync_unlock
    vfs_manager.o(i.file_change_handler) refers to vfs_manager.o(.bss) for .bss
    vfs_manager.o(i.file_change_handler) refers to vfs_manager.o(.constdata) for .constdata
    vfs_manager.o(i.file_change_handler) refers to vfs_manager.o(.data) for .data
    vfs_manager.o(i.file_data_handler) refers to file_stream.o(i.stream_start_identify) for stream_start_identify
    vfs_manager.o(i.file_data_handler) refers to vfs_manager.o(i.transfer_stream_open) for transfer_stream_open
    vfs_manager.o(i.file_data_handler) refers to vfs_manager.o(i.transfer_update_state) for transfer_update_state
    vfs_manager.o(i.file_data_handler) refers to vfs_manager.o(i.transfer_stream_data) for transfer_stream_data
    vfs_manager.o(i.file_data_handler) refers to vfs_manager.o(.bss) for .bss
    vfs_manager.o(i.ready_for_state_change) refers to util.o(i._util_assert) for _util_assert
    vfs_manager.o(i.ready_for_state_change) refers to vfs_manager.o(.data) for .data
    vfs_manager.o(i.ready_for_state_change) refers to vfs_manager.o(.bss) for .bss
    vfs_manager.o(i.sync_assert_usb_thread) refers to cmsis_os2_port.o(i.osThreadGetId) for osThreadGetId
    vfs_manager.o(i.sync_assert_usb_thread) refers to util.o(i._util_assert) for _util_assert
    vfs_manager.o(i.sync_assert_usb_thread) refers to vfs_manager.o(.data) for .data
    vfs_manager.o(i.sync_lock) refers to cmsis_os2_port.o(i.osMutexAcquire) for osMutexAcquire
    vfs_manager.o(i.sync_lock) refers to vfs_manager.o(.data) for .data
    vfs_manager.o(i.sync_unlock) refers to cmsis_os2_port.o(i.osMutexRelease) for osMutexRelease
    vfs_manager.o(i.sync_unlock) refers to vfs_manager.o(.data) for .data
    vfs_manager.o(i.transfer_stream_data) refers to util.o(i._util_assert) for _util_assert
    vfs_manager.o(i.transfer_stream_data) refers to file_stream.o(i.stream_write) for stream_write
    vfs_manager.o(i.transfer_stream_data) refers to vfs_manager.o(i.transfer_update_state) for transfer_update_state
    vfs_manager.o(i.transfer_stream_data) refers to file_stream.o(i.stream_close) for stream_close
    vfs_manager.o(i.transfer_stream_data) refers to vfs_manager.o(i.board_vfs_stream_closed_hook) for board_vfs_stream_closed_hook
    vfs_manager.o(i.transfer_stream_data) refers to vfs_manager.o(.bss) for .bss
    vfs_manager.o(i.transfer_stream_data) refers to vfs_manager.o(i.sync_assert_usb_thread) for i.sync_assert_usb_thread
    vfs_manager.o(i.transfer_stream_open) refers to util.o(i._util_assert) for _util_assert
    vfs_manager.o(i.transfer_stream_open) refers to file_stream.o(i.stream_open) for stream_open
    vfs_manager.o(i.transfer_stream_open) refers to vfs_manager.o(i.transfer_update_state) for transfer_update_state
    vfs_manager.o(i.transfer_stream_open) refers to vfs_manager.o(.bss) for .bss
    vfs_manager.o(i.transfer_stream_open) refers to vfs_manager.o(i.sync_assert_usb_thread) for i.sync_assert_usb_thread
    vfs_manager.o(i.transfer_update_file_info) refers to util.o(i._util_assert) for _util_assert
    vfs_manager.o(i.transfer_update_file_info) refers to vfs_manager.o(i.transfer_update_state) for transfer_update_state
    vfs_manager.o(i.transfer_update_file_info) refers to vfs_manager.o(.bss) for .bss
    vfs_manager.o(i.transfer_update_state) refers to util.o(i._util_assert) for _util_assert
    vfs_manager.o(i.transfer_update_state) refers to file_stream.o(i.stream_close) for stream_close
    vfs_manager.o(i.transfer_update_state) refers to vfs_manager.o(i.vfs_mngr_fs_remount) for vfs_mngr_fs_remount
    vfs_manager.o(i.transfer_update_state) refers to vfs_manager.o(.bss) for .bss
    vfs_manager.o(i.transfer_update_state) refers to vfs_manager.o(.data) for .data
    vfs_manager.o(i.usbd_msc_init) refers to cmsis_os2_port.o(i.osThreadGetId) for osThreadGetId
    vfs_manager.o(i.usbd_msc_init) refers to cmsis_os2_port.o(i.osMutexNew) for osMutexNew
    vfs_manager.o(i.usbd_msc_init) refers to vfs_manager.o(i.build_filesystem) for build_filesystem
    vfs_manager.o(i.usbd_msc_init) refers to vfs_manager.o(.data) for .data
    vfs_manager.o(i.usbd_msc_init) refers to usbd_msc.o(.data) for USBD_MSC_MediaReady
    vfs_manager.o(i.usbd_msc_read_sect) refers to vfs_manager.o(i.sync_assert_usb_thread) for sync_assert_usb_thread
    vfs_manager.o(i.usbd_msc_read_sect) refers to main_bootloader.o(i.main_blink_msc_led) for main_blink_msc_led
    vfs_manager.o(i.usbd_msc_read_sect) refers to virtual_fs.o(i.vfs_read) for vfs_read
    vfs_manager.o(i.usbd_msc_read_sect) refers to usbd_msc.o(.data) for USBD_MSC_MediaReady
    vfs_manager.o(i.usbd_msc_write_sect) refers to vfs_manager.o(i.sync_assert_usb_thread) for sync_assert_usb_thread
    vfs_manager.o(i.usbd_msc_write_sect) refers to main_bootloader.o(i.main_blink_msc_led) for main_blink_msc_led
    vfs_manager.o(i.usbd_msc_write_sect) refers to virtual_fs.o(i.vfs_write) for vfs_write
    vfs_manager.o(i.usbd_msc_write_sect) refers to vfs_manager.o(i.file_data_handler) for file_data_handler
    vfs_manager.o(i.usbd_msc_write_sect) refers to usbd_msc.o(.data) for USBD_MSC_MediaReady
    vfs_manager.o(i.usbd_msc_write_sect) refers to vfs_manager.o(.data) for .data
    vfs_manager.o(i.usbd_msc_write_sect) refers to vfs_manager.o(.bss) for .bss
    vfs_manager.o(i.vfs_mngr_fs_enable) refers to vfs_manager.o(i.sync_lock) for sync_lock
    vfs_manager.o(i.vfs_mngr_fs_enable) refers to vfs_manager.o(i.sync_unlock) for sync_unlock
    vfs_manager.o(i.vfs_mngr_fs_enable) refers to vfs_manager.o(.data) for .data
    vfs_manager.o(i.vfs_mngr_fs_remount) refers to vfs_manager.o(i.sync_lock) for sync_lock
    vfs_manager.o(i.vfs_mngr_fs_remount) refers to vfs_manager.o(i.changing_state) for changing_state
    vfs_manager.o(i.vfs_mngr_fs_remount) refers to vfs_manager.o(i.sync_unlock) for sync_unlock
    vfs_manager.o(i.vfs_mngr_fs_remount) refers to vfs_manager.o(.data) for .data
    vfs_manager.o(i.vfs_mngr_get_transfer_status) refers to vfs_manager.o(i.sync_assert_usb_thread) for sync_assert_usb_thread
    vfs_manager.o(i.vfs_mngr_get_transfer_status) refers to vfs_manager.o(.data) for .data
    vfs_manager.o(i.vfs_mngr_init) refers to vfs_manager.o(i.sync_assert_usb_thread) for sync_assert_usb_thread
    vfs_manager.o(i.vfs_mngr_init) refers to vfs_manager.o(i.build_filesystem) for build_filesystem
    vfs_manager.o(i.vfs_mngr_init) refers to vfs_manager.o(.data) for .data
    vfs_manager.o(i.vfs_mngr_init) refers to usbd_msc.o(.data) for USBD_MSC_MediaReady
    vfs_manager.o(i.vfs_mngr_periodic) refers to vfs_manager.o(i.sync_assert_usb_thread) for sync_assert_usb_thread
    vfs_manager.o(i.vfs_mngr_periodic) refers to vfs_manager.o(i.sync_lock) for sync_lock
    vfs_manager.o(i.vfs_mngr_periodic) refers to vfs_manager.o(i.changing_state) for changing_state
    vfs_manager.o(i.vfs_mngr_periodic) refers to vfs_manager.o(i.ready_for_state_change) for ready_for_state_change
    vfs_manager.o(i.vfs_mngr_periodic) refers to vfs_manager.o(i.sync_unlock) for sync_unlock
    vfs_manager.o(i.vfs_mngr_periodic) refers to vfs_manager.o(i.transfer_update_state) for transfer_update_state
    vfs_manager.o(i.vfs_mngr_periodic) refers to util.o(i._util_assert) for _util_assert
    vfs_manager.o(i.vfs_mngr_periodic) refers to vfs_user.o(i.vfs_user_disconnecting) for vfs_user_disconnecting
    vfs_manager.o(i.vfs_mngr_periodic) refers to vfs_manager.o(i.build_filesystem) for build_filesystem
    vfs_manager.o(i.vfs_mngr_periodic) refers to vfs_manager.o(.data) for .data
    vfs_manager.o(i.vfs_mngr_periodic) refers to vfs_manager.o(.bss) for .bss
    vfs_manager.o(i.vfs_mngr_periodic) refers to usbd_msc.o(.data) for USBD_MSC_MediaReady
    vfs_user.o(i.expand_info) refers to strlen.o(.text) for strlen
    vfs_user.o(i.expand_info) refers to rt_memmove_v6.o(.text) for __aeabi_memmove
    vfs_user.o(i.expand_info) refers to rt_memcpy_v6.o(.text) for __aeabi_memcpy
    vfs_user.o(i.expand_info) refers to info.o(i.info_get_mac) for info_get_mac
    vfs_user.o(i.expand_info) refers to info.o(i.info_get_unique_id) for info_get_unique_id
    vfs_user.o(i.expand_info) refers to info.o(i.info_get_board_id) for info_get_board_id
    vfs_user.o(i.expand_info) refers to info.o(i.info_get_host_id) for info_get_host_id
    vfs_user.o(i.expand_info) refers to info.o(i.info_get_target_id) for info_get_target_id
    vfs_user.o(i.expand_info) refers to info.o(i.info_get_hic_id) for info_get_hic_id
    vfs_user.o(i.expand_info) refers to info.o(i.info_get_version) for info_get_version
    vfs_user.o(i.expand_info) refers to stm32f103xb_bl.o(.constdata) for g_board_info
    vfs_user.o(i.expand_string_in_region) refers to rt_memclr_w.o(.text) for __aeabi_memclr4
    vfs_user.o(i.expand_string_in_region) refers to vfs_user.o(i.expand_info) for expand_info
    vfs_user.o(i.expand_string_in_region) refers to util.o(i.util_write_in_region) for util_write_in_region
    vfs_user.o(i.hex32_field_in_region) refers to util.o(i.util_write_hex32) for util_write_hex32
    vfs_user.o(i.hex32_field_in_region) refers to vfs_user.o(i.string_field_in_region) for string_field_in_region
    vfs_user.o(i.hex32_field_in_region) refers to vfs_user.o(.constdata) for .constdata
    vfs_user.o(i.read_file_assert_txt) refers to util.o(i.util_write_string_in_region) for util_write_string_in_region
    vfs_user.o(i.read_file_assert_txt) refers to vfs_user.o(i.string_field_in_region) for string_field_in_region
    vfs_user.o(i.read_file_assert_txt) refers to vfs_user.o(i.uint32_field_in_region) for uint32_field_in_region
    vfs_user.o(i.read_file_assert_txt) refers to settings.o(i.config_ram_get_hexdumps) for config_ram_get_hexdumps
    vfs_user.o(i.read_file_assert_txt) refers to util.o(i.util_write_hex32) for util_write_hex32
    vfs_user.o(i.read_file_assert_txt) refers to util.o(i.util_write_in_region) for util_write_in_region
    vfs_user.o(i.read_file_assert_txt) refers to vfs_user.o(.data) for .data
    vfs_user.o(i.read_file_assert_txt) refers to vfs_user.o(.bss) for .bss
    vfs_user.o(i.read_file_details_txt) refers to vfs_user.o(i.update_details_txt_file) for update_details_txt_file
    vfs_user.o(i.read_file_fail_txt) refers to vfs_manager.o(i.vfs_mngr_get_transfer_status) for vfs_mngr_get_transfer_status
    vfs_user.o(i.read_file_fail_txt) refers to error.o(i.error_get_string) for error_get_string
    vfs_user.o(i.read_file_fail_txt) refers to error.o(i.error_get_type) for error_get_type
    vfs_user.o(i.read_file_fail_txt) refers to vfs_user.o(i.string_field_in_region) for string_field_in_region
    vfs_user.o(i.read_file_fail_txt) refers to util.o(i.util_write_string_in_region) for util_write_string_in_region
    vfs_user.o(i.read_file_fail_txt) refers to util.o(i.util_write_in_region) for util_write_in_region
    vfs_user.o(i.read_file_fail_txt) refers to vfs_user.o(.constdata) for .constdata
    vfs_user.o(i.read_file_mbed_htm) refers to util.o(i.util_write_string_in_region) for util_write_string_in_region
    vfs_user.o(i.read_file_mbed_htm) refers to vfs_user.o(i.expand_string_in_region) for expand_string_in_region
    vfs_user.o(i.read_file_mbed_htm) refers to vfs_user.o(.conststring) for .conststring
    vfs_user.o(i.read_file_need_bl_txt) refers to strlen.o(.text) for strlen
    vfs_user.o(i.read_file_need_bl_txt) refers to rt_memcpy_v6.o(.text) for __aeabi_memcpy
    vfs_user.o(i.read_file_need_bl_txt) refers to vfs_user.o(.conststring) for .conststring
    vfs_user.o(i.setting_in_region) refers to vfs_user.o(i.string_field_in_region) for string_field_in_region
    vfs_user.o(i.string_field_in_region) refers to util.o(i.util_write_string_in_region) for util_write_string_in_region
    vfs_user.o(i.string_field_in_region) refers to util.o(i.util_write_in_region) for util_write_in_region
    vfs_user.o(i.uint32_field_in_region) refers to util.o(i.util_write_uint32) for util_write_uint32
    vfs_user.o(i.uint32_field_in_region) refers to vfs_user.o(i.string_field_in_region) for string_field_in_region
    vfs_user.o(i.update_details_txt_file) refers to util.o(i.util_write_string_in_region) for util_write_string_in_region
    vfs_user.o(i.update_details_txt_file) refers to vfs_user.o(i.expand_string_in_region) for expand_string_in_region
    vfs_user.o(i.update_details_txt_file) refers to settings_rom_stub.o(i.config_get_auto_rst) for config_get_auto_rst
    vfs_user.o(i.update_details_txt_file) refers to vfs_user.o(i.setting_in_region) for setting_in_region
    vfs_user.o(i.update_details_txt_file) refers to settings_rom_stub.o(i.config_get_automation_allowed) for config_get_automation_allowed
    vfs_user.o(i.update_details_txt_file) refers to settings_rom_stub.o(i.config_get_overflow_detect) for config_get_overflow_detect
    vfs_user.o(i.update_details_txt_file) refers to settings_rom_stub.o(i.config_get_detect_incompatible_target) for config_get_detect_incompatible_target
    vfs_user.o(i.update_details_txt_file) refers to settings.o(i.config_ram_get_page_erase) for config_ram_get_page_erase
    vfs_user.o(i.update_details_txt_file) refers to info.o(i.info_get_interface_present) for info_get_interface_present
    vfs_user.o(i.update_details_txt_file) refers to info.o(i.info_get_interface_version) for info_get_interface_version
    vfs_user.o(i.update_details_txt_file) refers to util.o(i.util_write_uint32_zp) for util_write_uint32_zp
    vfs_user.o(i.update_details_txt_file) refers to util.o(i.util_write_in_region) for util_write_in_region
    vfs_user.o(i.update_details_txt_file) refers to info.o(i.info_get_bootloader_present) for info_get_bootloader_present
    vfs_user.o(i.update_details_txt_file) refers to info.o(i.info_get_crc_bootloader) for info_get_crc_bootloader
    vfs_user.o(i.update_details_txt_file) refers to vfs_user.o(i.hex32_field_in_region) for hex32_field_in_region
    vfs_user.o(i.update_details_txt_file) refers to info.o(i.info_get_crc_interface) for info_get_crc_interface
    vfs_user.o(i.update_details_txt_file) refers to vfs_user.o(i.uint32_field_in_region) for uint32_field_in_region
    vfs_user.o(i.update_details_txt_file) refers to vfs_user.o(.conststring) for .conststring
    vfs_user.o(i.update_details_txt_file) refers to vfs_user.o(.data) for .data
    vfs_user.o(i.vfs_user_build_filesystem) refers to virtual_fs.o(i.vfs_init) for vfs_init
    vfs_user.o(i.vfs_user_build_filesystem) refers to vfs_user.o(i.get_file_size) for get_file_size
    vfs_user.o(i.vfs_user_build_filesystem) refers to virtual_fs.o(i.vfs_create_file) for vfs_create_file
    vfs_user.o(i.vfs_user_build_filesystem) refers to vfs_manager.o(i.vfs_mngr_get_transfer_status) for vfs_mngr_get_transfer_status
    vfs_user.o(i.vfs_user_build_filesystem) refers to settings.o(i.config_ram_get_assert) for config_ram_get_assert
    vfs_user.o(i.vfs_user_build_filesystem) refers to virtual_fs.o(i.vfs_file_set_attr) for vfs_file_set_attr
    vfs_user.o(i.vfs_user_build_filesystem) refers to vfs_user.o(i.vfs_user_build_filesystem_hook) for vfs_user_build_filesystem_hook
    vfs_user.o(i.vfs_user_build_filesystem) refers to stm32f103xb_bl.o(.constdata) for g_board_info
    vfs_user.o(i.vfs_user_build_filesystem) refers to vfs_user.o(i.read_file_mbed_htm) for read_file_mbed_htm
    vfs_user.o(i.vfs_user_build_filesystem) refers to vfs_user.o(i.read_file_details_txt) for read_file_details_txt
    vfs_user.o(i.vfs_user_build_filesystem) refers to vfs_user.o(i.read_file_fail_txt) for read_file_fail_txt
    vfs_user.o(i.vfs_user_build_filesystem) refers to vfs_user.o(.data) for .data
    vfs_user.o(i.vfs_user_build_filesystem) refers to vfs_user.o(.bss) for .bss
    vfs_user.o(i.vfs_user_build_filesystem) refers to vfs_user.o(i.read_file_assert_txt) for read_file_assert_txt
    vfs_user.o(i.vfs_user_build_filesystem) refers to vfs_user.o(.constdata) for .constdata
    vfs_user.o(i.vfs_user_disconnecting) refers to vfs_manager.o(i.vfs_mngr_get_transfer_status) for vfs_mngr_get_transfer_status
    vfs_user.o(i.vfs_user_disconnecting) refers to cortex_m.o(i.SystemReset) for SystemReset
    vfs_user.o(i.vfs_user_disconnecting) refers to vfs_user.o(.data) for .data
    vfs_user.o(i.vfs_user_file_change_handler) refers to vfs_user.o(i.vfs_user_file_change_handler_hook) for vfs_user_file_change_handler_hook
    vfs_user.o(i.vfs_user_file_change_handler) refers to gpio.o(i.gpio_get_reset_btn_no_fwrd) for gpio_get_reset_btn_no_fwrd
    vfs_user.o(i.vfs_user_file_change_handler) refers to gpio.o(i.gpio_get_reset_btn_fwrd) for gpio_get_reset_btn_fwrd
    vfs_user.o(i.vfs_user_file_change_handler) refers to settings_rom_stub.o(i.config_get_automation_allowed) for config_get_automation_allowed
    vfs_user.o(i.vfs_user_file_change_handler) refers to memcmp.o(.text) for memcmp
    vfs_user.o(i.vfs_user_file_change_handler) refers to util.o(i.util_assert_clear) for util_assert_clear
    vfs_user.o(i.vfs_user_file_change_handler) refers to vfs_manager.o(i.vfs_mngr_fs_remount) for vfs_mngr_fs_remount
    vfs_user.o(i.vfs_user_file_change_handler) refers to vfs_user.o(i.vfs_user_magic_file_hook) for vfs_user_magic_file_hook
    vfs_user.o(i.vfs_user_file_change_handler) refers to util.o(i._util_assert) for _util_assert
    vfs_user.o(i.vfs_user_file_change_handler) refers to settings_rom_stub.o(i.config_set_auto_rst) for config_set_auto_rst
    vfs_user.o(i.vfs_user_file_change_handler) refers to settings_rom_stub.o(i.config_set_automation_allowed) for config_set_automation_allowed
    vfs_user.o(i.vfs_user_file_change_handler) refers to settings_rom_stub.o(i.config_set_overflow_detect) for config_set_overflow_detect
    vfs_user.o(i.vfs_user_file_change_handler) refers to settings.o(i.config_ram_set_disable_msd) for config_ram_set_disable_msd
    vfs_user.o(i.vfs_user_file_change_handler) refers to settings_rom_stub.o(i.config_set_detect_incompatible_target) for config_set_detect_incompatible_target
    vfs_user.o(i.vfs_user_file_change_handler) refers to settings.o(i.config_ram_set_page_erase) for config_ram_set_page_erase
    vfs_user.o(i.vfs_user_file_change_handler) refers to vfs_user.o(.constdata) for .constdata
    vfs_user.o(i.vfs_user_file_change_handler) refers to flash_intf.o(.constdata) for flash_intf_target
    vfs_user.o(.constdata) refers to vfs_user.o(.constdata) for daplink_mode_file_name
    vfs_user.o(.constdata) refers to vfs_user.o(.conststring) for .conststring
    virtual_fs.o(i.read_dir) refers to util.o(i._util_assert) for _util_assert
    virtual_fs.o(i.read_dir) refers to rt_memclr.o(.text) for __aeabi_memclr
    virtual_fs.o(i.read_dir) refers to rt_memcpy_v6.o(.text) for __aeabi_memcpy
    virtual_fs.o(i.read_dir) refers to virtual_fs.o(.data) for .data
    virtual_fs.o(i.read_dir) refers to virtual_fs.o(.bss) for .bss
    virtual_fs.o(i.read_fat) refers to rt_memcpy_v6.o(.text) for __aeabi_memcpy
    virtual_fs.o(i.read_fat) refers to virtual_fs.o(.bss) for .bss
    virtual_fs.o(i.read_mbr) refers to rt_memcpy_v6.o(.text) for __aeabi_memcpy
    virtual_fs.o(i.read_mbr) refers to virtual_fs.o(.bss) for .bss
    virtual_fs.o(i.read_zero) refers to rt_memclr.o(.text) for __aeabi_memclr
    virtual_fs.o(i.vfs_create_file) refers to virtual_fs.o(i.filename_valid) for filename_valid
    virtual_fs.o(i.vfs_create_file) refers to util.o(i._util_assert) for _util_assert
    virtual_fs.o(i.vfs_create_file) refers to virtual_fs.o(i.write_fat) for write_fat
    virtual_fs.o(i.vfs_create_file) refers to rt_memcpy_v6.o(.text) for __aeabi_memcpy
    virtual_fs.o(i.vfs_create_file) refers to virtual_fs.o(.bss) for .bss
    virtual_fs.o(i.vfs_create_file) refers to virtual_fs.o(.data) for .data
    virtual_fs.o(i.vfs_create_file) refers to virtual_fs.o(.constdata) for .constdata
    virtual_fs.o(i.vfs_create_file) refers to virtual_fs.o(i.read_zero) for read_zero
    virtual_fs.o(i.vfs_create_file) refers to virtual_fs.o(i.write_none) for write_none
    virtual_fs.o(i.vfs_file_get_start_sector) refers to virtual_fs.o(.bss) for .bss
    virtual_fs.o(i.vfs_file_get_start_sector) refers to virtual_fs.o(.data) for .data
    virtual_fs.o(i.vfs_get_total_size) refers to util.o(i._util_assert) for _util_assert
    virtual_fs.o(i.vfs_get_total_size) refers to virtual_fs.o(.bss) for .bss
    virtual_fs.o(i.vfs_init) refers to rt_memclr_w.o(.text) for __aeabi_memclr4
    virtual_fs.o(i.vfs_init) refers to rt_memcpy_w.o(.text) for __aeabi_memcpy4
    virtual_fs.o(i.vfs_init) refers to util.o(i._util_assert) for _util_assert
    virtual_fs.o(i.vfs_init) refers to virtual_fs.o(i.write_fat) for write_fat
    virtual_fs.o(i.vfs_init) refers to rt_memcpy_v6.o(.text) for __aeabi_memcpy
    virtual_fs.o(i.vfs_init) refers to virtual_fs.o(.bss) for .bss
    virtual_fs.o(i.vfs_init) refers to virtual_fs.o(.data) for .data
    virtual_fs.o(i.vfs_init) refers to virtual_fs.o(i.file_change_cb_stub) for file_change_cb_stub
    virtual_fs.o(i.vfs_init) refers to virtual_fs.o(.constdata) for .constdata
    virtual_fs.o(i.vfs_read) refers to rt_memclr.o(.text) for __aeabi_memclr
    virtual_fs.o(i.vfs_read) refers to virtual_fs.o(.bss) for .bss
    virtual_fs.o(i.vfs_set_file_change_callback) refers to virtual_fs.o(.data) for .data
    virtual_fs.o(i.vfs_write) refers to virtual_fs.o(.bss) for .bss
    virtual_fs.o(i.vfs_write) refers to virtual_fs.o(.data) for .data
    virtual_fs.o(i.write_dir) refers to util.o(i._util_assert) for _util_assert
    virtual_fs.o(i.write_dir) refers to memcmp.o(.text) for memcmp
    virtual_fs.o(i.write_dir) refers to virtual_fs.o(i.filename_valid) for filename_valid
    virtual_fs.o(i.write_dir) refers to rt_memcpy_v6.o(.text) for __aeabi_memcpy
    virtual_fs.o(i.write_dir) refers to virtual_fs.o(.bss) for .bss
    virtual_fs.o(i.write_dir) refers to virtual_fs.o(.data) for .data
    virtual_fs.o(i.write_fat) refers to util.o(i._util_assert) for _util_assert
    virtual_fs.o(.constdata) refers to virtual_fs.o(i.read_mbr) for read_mbr
    virtual_fs.o(.constdata) refers to virtual_fs.o(i.write_none) for write_none
    virtual_fs.o(.constdata) refers to virtual_fs.o(i.read_fat) for read_fat
    virtual_fs.o(.constdata) refers to virtual_fs.o(i.read_dir) for read_dir
    virtual_fs.o(.constdata) refers to virtual_fs.o(i.write_dir) for write_dir
    flash.o(i.EraseChip) refers to stm32f1xx_hal_flash.o(i.HAL_FLASH_Unlock) for HAL_FLASH_Unlock
    flash.o(i.EraseChip) refers to util.o(i._util_assert) for _util_assert
    flash.o(i.EraseChip) refers to stm32f1xx_hal_flash_ex.o(i.HAL_FLASHEx_Erase) for HAL_FLASHEx_Erase
    flash.o(i.EraseChip) refers to stm32f1xx_hal_flash.o(i.HAL_FLASH_Lock) for HAL_FLASH_Lock
    flash.o(i.EraseChip) refers to stm32f103xb_bl.o(.constdata) for g_board_info
    flash.o(i.EraseSector) refers to stm32f1xx_hal_flash.o(i.HAL_FLASH_Unlock) for HAL_FLASH_Unlock
    flash.o(i.EraseSector) refers to stm32f1xx_hal_flash_ex.o(i.HAL_FLASHEx_Erase) for HAL_FLASHEx_Erase
    flash.o(i.EraseSector) refers to stm32f1xx_hal_flash.o(i.HAL_FLASH_Lock) for HAL_FLASH_Lock
    flash.o(i.ProgramPage) refers to stm32f1xx_hal_flash.o(i.HAL_FLASH_Unlock) for HAL_FLASH_Unlock
    flash.o(i.ProgramPage) refers to util.o(i._util_assert) for _util_assert
    flash.o(i.ProgramPage) refers to stm32f1xx_hal_flash.o(i.HAL_FLASH_Program) for HAL_FLASH_Program
    flash.o(i.ProgramPage) refers to stm32f1xx_hal_flash.o(i.HAL_FLASH_Lock) for HAL_FLASH_Lock
    gpio.o(i.gpio_init) refers to stm32f1xx_hal_gpio.o(i.HAL_GPIO_Init) for HAL_GPIO_Init
    gpio.o(i.gpio_init) refers to stm32f1xx_hal_gpio.o(i.HAL_GPIO_WritePin) for HAL_GPIO_WritePin
    gpio.o(i.gpio_init) refers to gpio.o(i.output_clock_enable) for output_clock_enable
    gpio.o(i.gpio_set_cdc_led) refers to stm32f1xx_hal_gpio.o(i.HAL_GPIO_WritePin) for HAL_GPIO_WritePin
    gpio.o(i.gpio_set_hid_led) refers to stm32f1xx_hal_gpio.o(i.HAL_GPIO_WritePin) for HAL_GPIO_WritePin
    gpio.o(i.gpio_set_msc_led) refers to stm32f1xx_hal_gpio.o(i.HAL_GPIO_WritePin) for HAL_GPIO_WritePin
    gpio.o(i.output_clock_enable) refers to stm32f1xx_hal_rcc.o(i.HAL_RCC_GetClockConfig) for HAL_RCC_GetClockConfig
    gpio.o(i.output_clock_enable) refers to stm32f1xx_hal_tim.o(i.HAL_TIM_PWM_DeInit) for HAL_TIM_PWM_DeInit
    gpio.o(i.output_clock_enable) refers to stm32f1xx_hal_tim.o(i.HAL_TIM_PWM_Init) for HAL_TIM_PWM_Init
    gpio.o(i.output_clock_enable) refers to stm32f1xx_hal_tim.o(i.HAL_TIM_PWM_ConfigChannel) for HAL_TIM_PWM_ConfigChannel
    gpio.o(i.output_clock_enable) refers to stm32f1xx_hal_tim.o(i.HAL_TIM_PWM_Start) for HAL_TIM_PWM_Start
    gpio.o(i.output_clock_enable) refers to util.o(i._util_assert) for _util_assert
    gpio.o(i.output_clock_enable) refers to system_stm32f1xx.o(.data) for SystemCoreClock
    gpio.o(i.output_clock_enable) refers to gpio.o(.bss) for .bss
    sdk.o(i.HAL_GetTick) refers to sdk.o(.bss) for .bss
    sdk.o(i.HAL_GetTick) refers to sdk.o(.data) for .data
    sdk.o(i.HAL_InitTick) refers to stm32f1xx_hal_rcc.o(i.HAL_RCC_GetClockConfig) for HAL_RCC_GetClockConfig
    sdk.o(i.HAL_InitTick) refers to stm32f1xx_hal_tim.o(i.HAL_TIM_Base_DeInit) for HAL_TIM_Base_DeInit
    sdk.o(i.HAL_InitTick) refers to stm32f1xx_hal_tim.o(i.HAL_TIM_Base_Init) for HAL_TIM_Base_Init
    sdk.o(i.HAL_InitTick) refers to stm32f1xx_hal_tim.o(i.HAL_TIM_Base_Start) for HAL_TIM_Base_Start
    sdk.o(i.HAL_InitTick) refers to system_stm32f1xx.o(.data) for SystemCoreClock
    sdk.o(i.HAL_InitTick) refers to sdk.o(.bss) for .bss
    sdk.o(i.HAL_InitTick) refers to sdk.o(.data) for .data
    sdk.o(i.HAL_ResumeTick) refers to stm32f1xx_hal_tim.o(i.HAL_TIM_Base_Stop) for HAL_TIM_Base_Stop
    sdk.o(i.HAL_ResumeTick) refers to sdk.o(.bss) for .bss
    sdk.o(i.HAL_SuspendTick) refers to stm32f1xx_hal_tim.o(i.HAL_TIM_Base_Start) for HAL_TIM_Base_Start
    sdk.o(i.HAL_SuspendTick) refers to sdk.o(.bss) for .bss
    sdk.o(i.sdk_init) refers to rt_memclr_w.o(.text) for __aeabi_memclr4
    sdk.o(i.sdk_init) refers to system_stm32f1xx.o(i.SystemCoreClockUpdate) for SystemCoreClockUpdate
    sdk.o(i.sdk_init) refers to stm32f1xx_hal.o(i.HAL_Init) for HAL_Init
    sdk.o(i.sdk_init) refers to stm32f1xx_hal_rcc.o(i.HAL_RCC_ClockConfig) for HAL_RCC_ClockConfig
    sdk.o(i.sdk_init) refers to util.o(i._util_assert) for _util_assert
    sdk.o(i.sdk_init) refers to stm32f1xx_hal_rcc.o(i.HAL_RCC_OscConfig) for HAL_RCC_OscConfig
    startup_stm32f103xb.o(STACK) refers (Special) to heapauxi.o(.text) for __use_two_region_memory
    startup_stm32f103xb.o(HEAP) refers (Special) to heapauxi.o(.text) for __use_two_region_memory
    startup_stm32f103xb.o(RESET) refers (Special) to heapauxi.o(.text) for __use_two_region_memory
    startup_stm32f103xb.o(RESET) refers to startup_stm32f103xb.o(STACK) for __initial_sp
    startup_stm32f103xb.o(RESET) refers to startup_stm32f103xb.o(.text) for Reset_Handler
    startup_stm32f103xb.o(RESET) refers to hardfault_handler.o(i.HardFault_Handler) for HardFault_Handler
    startup_stm32f103xb.o(RESET) refers to stm32f103xb_bl.o(.constdata) for g_board_info
    startup_stm32f103xb.o(RESET) refers to systick_handler.o(i.SysTick_Handler) for SysTick_Handler
    startup_stm32f103xb.o(RESET) refers to usbd_stm32f103.o(i.USB_LP_CAN1_RX0_IRQHandler) for USB_LP_CAN1_RX0_IRQHandler
    startup_stm32f103xb.o(RESET) refers to uart.o(i.USART2_IRQHandler) for USART2_IRQHandler
    startup_stm32f103xb.o(.text) refers (Special) to heapauxi.o(.text) for __use_two_region_memory
    startup_stm32f103xb.o(.text) refers to system_stm32f1xx.o(i.SystemInit) for SystemInit
    startup_stm32f103xb.o(.text) refers to __main.o(!!!main) for __main
    startup_stm32f103xb.o(.text) refers to startup_stm32f103xb.o(HEAP) for Heap_Mem
    startup_stm32f103xb.o(.text) refers to startup_stm32f103xb.o(STACK) for Stack_Mem
    stm32f1xx_hal.o(i.HAL_DeInit) refers to stm32f1xx_hal.o(i.HAL_MspDeInit) for HAL_MspDeInit
    stm32f1xx_hal.o(i.HAL_Delay) refers to sdk.o(i.HAL_GetTick) for HAL_GetTick
    stm32f1xx_hal.o(i.HAL_GetTick) refers to stm32f1xx_hal.o(.data) for .data
    stm32f1xx_hal.o(i.HAL_IncTick) refers to stm32f1xx_hal.o(.data) for .data
    stm32f1xx_hal.o(i.HAL_Init) refers to stm32f1xx_hal_cortex.o(i.HAL_NVIC_SetPriorityGrouping) for HAL_NVIC_SetPriorityGrouping
    stm32f1xx_hal.o(i.HAL_Init) refers to sdk.o(i.HAL_InitTick) for HAL_InitTick
    stm32f1xx_hal.o(i.HAL_Init) refers to stm32f1xx_hal.o(i.HAL_MspInit) for HAL_MspInit
    stm32f1xx_hal.o(i.HAL_InitTick) refers to stm32f1xx_hal_rcc.o(i.HAL_RCC_GetHCLKFreq) for HAL_RCC_GetHCLKFreq
    stm32f1xx_hal.o(i.HAL_InitTick) refers to stm32f1xx_hal_cortex.o(i.HAL_SYSTICK_Config) for HAL_SYSTICK_Config
    stm32f1xx_hal.o(i.HAL_InitTick) refers to stm32f1xx_hal_cortex.o(i.HAL_NVIC_SetPriority) for HAL_NVIC_SetPriority
    stm32f1xx_hal_cortex.o(i.HAL_NVIC_SetPriority) refers to stm32f1xx_hal_cortex.o(i.__NVIC_SetPriority) for __NVIC_SetPriority
    stm32f1xx_hal_cortex.o(i.HAL_SYSTICK_Config) refers to stm32f1xx_hal_cortex.o(i.__NVIC_SetPriority) for __NVIC_SetPriority
    stm32f1xx_hal_cortex.o(i.HAL_SYSTICK_IRQHandler) refers to stm32f1xx_hal_cortex.o(i.HAL_SYSTICK_Callback) for HAL_SYSTICK_Callback
    stm32f1xx_hal_dma.o(i.HAL_DMA_Abort) refers to sdk.o(i.HAL_GetTick) for HAL_GetTick
    stm32f1xx_hal_dma.o(i.HAL_DMA_PollForTransfer) refers to sdk.o(i.HAL_GetTick) for HAL_GetTick
    stm32f1xx_hal_dma.o(i.HAL_DMA_Start) refers to stm32f1xx_hal_dma.o(i.DMA_SetConfig) for DMA_SetConfig
    stm32f1xx_hal_dma.o(i.HAL_DMA_Start_IT) refers to stm32f1xx_hal_dma.o(i.DMA_SetConfig) for DMA_SetConfig
    stm32f1xx_hal_flash.o(i.FLASH_Program_HalfWord) refers to stm32f1xx_hal_flash.o(.bss) for .bss
    stm32f1xx_hal_flash.o(i.FLASH_SetErrorCode) refers to stm32f1xx_hal_flash.o(.bss) for .bss
    stm32f1xx_hal_flash.o(i.FLASH_WaitForLastOperation) refers to sdk.o(i.HAL_GetTick) for HAL_GetTick
    stm32f1xx_hal_flash.o(i.FLASH_WaitForLastOperation) refers to stm32f1xx_hal_flash.o(i.FLASH_SetErrorCode) for FLASH_SetErrorCode
    stm32f1xx_hal_flash.o(i.HAL_FLASH_GetError) refers to stm32f1xx_hal_flash.o(.bss) for .bss
    stm32f1xx_hal_flash.o(i.HAL_FLASH_IRQHandler) refers to stm32f1xx_hal_flash.o(i.FLASH_SetErrorCode) for FLASH_SetErrorCode
    stm32f1xx_hal_flash.o(i.HAL_FLASH_IRQHandler) refers to stm32f1xx_hal_flash.o(i.HAL_FLASH_OperationErrorCallback) for HAL_FLASH_OperationErrorCallback
    stm32f1xx_hal_flash.o(i.HAL_FLASH_IRQHandler) refers to stm32f1xx_hal_flash.o(i.FLASH_Program_HalfWord) for FLASH_Program_HalfWord
    stm32f1xx_hal_flash.o(i.HAL_FLASH_IRQHandler) refers to stm32f1xx_hal_flash.o(i.HAL_FLASH_EndOfOperationCallback) for HAL_FLASH_EndOfOperationCallback
    stm32f1xx_hal_flash.o(i.HAL_FLASH_IRQHandler) refers to stm32f1xx_hal_flash_ex.o(i.FLASH_PageErase) for FLASH_PageErase
    stm32f1xx_hal_flash.o(i.HAL_FLASH_IRQHandler) refers to stm32f1xx_hal_flash.o(.bss) for .bss
    stm32f1xx_hal_flash.o(i.HAL_FLASH_OB_Launch) refers to stm32f1xx_hal_cortex.o(i.HAL_NVIC_SystemReset) for HAL_NVIC_SystemReset
    stm32f1xx_hal_flash.o(i.HAL_FLASH_Program) refers to stm32f1xx_hal_flash.o(i.FLASH_WaitForLastOperation) for FLASH_WaitForLastOperation
    stm32f1xx_hal_flash.o(i.HAL_FLASH_Program) refers to llushr.o(.text) for __aeabi_llsr
    stm32f1xx_hal_flash.o(i.HAL_FLASH_Program) refers to stm32f1xx_hal_flash.o(i.FLASH_Program_HalfWord) for FLASH_Program_HalfWord
    stm32f1xx_hal_flash.o(i.HAL_FLASH_Program) refers to stm32f1xx_hal_flash.o(.bss) for .bss
    stm32f1xx_hal_flash.o(i.HAL_FLASH_Program_IT) refers to stm32f1xx_hal_flash.o(i.FLASH_Program_HalfWord) for FLASH_Program_HalfWord
    stm32f1xx_hal_flash.o(i.HAL_FLASH_Program_IT) refers to stm32f1xx_hal_flash.o(.bss) for .bss
    stm32f1xx_hal_flash_ex.o(i.FLASH_MassErase) refers to stm32f1xx_hal_flash.o(.bss) for pFlash
    stm32f1xx_hal_flash_ex.o(i.FLASH_OB_DisableWRP) refers to stm32f1xx_hal_flash.o(i.FLASH_WaitForLastOperation) for FLASH_WaitForLastOperation
    stm32f1xx_hal_flash_ex.o(i.FLASH_OB_DisableWRP) refers to stm32f1xx_hal_flash_ex.o(i.HAL_FLASHEx_OBErase) for HAL_FLASHEx_OBErase
    stm32f1xx_hal_flash_ex.o(i.FLASH_OB_DisableWRP) refers to stm32f1xx_hal_flash.o(.bss) for pFlash
    stm32f1xx_hal_flash_ex.o(i.FLASH_OB_EnableWRP) refers to stm32f1xx_hal_flash.o(i.FLASH_WaitForLastOperation) for FLASH_WaitForLastOperation
    stm32f1xx_hal_flash_ex.o(i.FLASH_OB_EnableWRP) refers to stm32f1xx_hal_flash_ex.o(i.HAL_FLASHEx_OBErase) for HAL_FLASHEx_OBErase
    stm32f1xx_hal_flash_ex.o(i.FLASH_OB_EnableWRP) refers to stm32f1xx_hal_flash.o(.bss) for pFlash
    stm32f1xx_hal_flash_ex.o(i.FLASH_OB_RDP_LevelConfig) refers to stm32f1xx_hal_flash.o(i.FLASH_WaitForLastOperation) for FLASH_WaitForLastOperation
    stm32f1xx_hal_flash_ex.o(i.FLASH_OB_RDP_LevelConfig) refers to stm32f1xx_hal_flash.o(.bss) for pFlash
    stm32f1xx_hal_flash_ex.o(i.FLASH_PageErase) refers to stm32f1xx_hal_flash.o(.bss) for pFlash
    stm32f1xx_hal_flash_ex.o(i.HAL_FLASHEx_Erase) refers to stm32f1xx_hal_flash.o(i.FLASH_WaitForLastOperation) for FLASH_WaitForLastOperation
    stm32f1xx_hal_flash_ex.o(i.HAL_FLASHEx_Erase) refers to stm32f1xx_hal_flash_ex.o(i.FLASH_MassErase) for FLASH_MassErase
    stm32f1xx_hal_flash_ex.o(i.HAL_FLASHEx_Erase) refers to stm32f1xx_hal_flash_ex.o(i.FLASH_PageErase) for FLASH_PageErase
    stm32f1xx_hal_flash_ex.o(i.HAL_FLASHEx_Erase) refers to stm32f1xx_hal_flash.o(.bss) for pFlash
    stm32f1xx_hal_flash_ex.o(i.HAL_FLASHEx_Erase_IT) refers to stm32f1xx_hal_flash_ex.o(i.FLASH_PageErase) for FLASH_PageErase
    stm32f1xx_hal_flash_ex.o(i.HAL_FLASHEx_Erase_IT) refers to stm32f1xx_hal_flash_ex.o(i.FLASH_MassErase) for FLASH_MassErase
    stm32f1xx_hal_flash_ex.o(i.HAL_FLASHEx_Erase_IT) refers to stm32f1xx_hal_flash.o(.bss) for pFlash
    stm32f1xx_hal_flash_ex.o(i.HAL_FLASHEx_OBErase) refers to stm32f1xx_hal_flash_ex.o(i.FLASH_OB_GetRDP) for FLASH_OB_GetRDP
    stm32f1xx_hal_flash_ex.o(i.HAL_FLASHEx_OBErase) refers to stm32f1xx_hal_flash.o(i.FLASH_WaitForLastOperation) for FLASH_WaitForLastOperation
    stm32f1xx_hal_flash_ex.o(i.HAL_FLASHEx_OBErase) refers to stm32f1xx_hal_flash_ex.o(i.FLASH_OB_RDP_LevelConfig) for FLASH_OB_RDP_LevelConfig
    stm32f1xx_hal_flash_ex.o(i.HAL_FLASHEx_OBErase) refers to stm32f1xx_hal_flash.o(.bss) for pFlash
    stm32f1xx_hal_flash_ex.o(i.HAL_FLASHEx_OBGetConfig) refers to stm32f1xx_hal_flash_ex.o(i.FLASH_OB_GetRDP) for FLASH_OB_GetRDP
    stm32f1xx_hal_flash_ex.o(i.HAL_FLASHEx_OBProgram) refers to stm32f1xx_hal_flash_ex.o(i.FLASH_OB_DisableWRP) for FLASH_OB_DisableWRP
    stm32f1xx_hal_flash_ex.o(i.HAL_FLASHEx_OBProgram) refers to stm32f1xx_hal_flash_ex.o(i.FLASH_OB_EnableWRP) for FLASH_OB_EnableWRP
    stm32f1xx_hal_flash_ex.o(i.HAL_FLASHEx_OBProgram) refers to stm32f1xx_hal_flash_ex.o(i.FLASH_OB_RDP_LevelConfig) for FLASH_OB_RDP_LevelConfig
    stm32f1xx_hal_flash_ex.o(i.HAL_FLASHEx_OBProgram) refers to stm32f1xx_hal_flash.o(i.FLASH_WaitForLastOperation) for FLASH_WaitForLastOperation
    stm32f1xx_hal_flash_ex.o(i.HAL_FLASHEx_OBProgram) refers to stm32f1xx_hal_flash.o(.bss) for pFlash
    stm32f1xx_hal_gpio.o(i.HAL_GPIO_EXTI_IRQHandler) refers to stm32f1xx_hal_gpio.o(i.HAL_GPIO_EXTI_Callback) for HAL_GPIO_EXTI_Callback
    stm32f1xx_hal_rcc.o(i.HAL_RCC_ClockConfig) refers to sdk.o(i.HAL_GetTick) for HAL_GetTick
    stm32f1xx_hal_rcc.o(i.HAL_RCC_ClockConfig) refers to stm32f1xx_hal_rcc.o(i.HAL_RCC_GetSysClockFreq) for HAL_RCC_GetSysClockFreq
    stm32f1xx_hal_rcc.o(i.HAL_RCC_ClockConfig) refers to sdk.o(i.HAL_InitTick) for HAL_InitTick
    stm32f1xx_hal_rcc.o(i.HAL_RCC_ClockConfig) refers to system_stm32f1xx.o(.constdata) for AHBPrescTable
    stm32f1xx_hal_rcc.o(i.HAL_RCC_ClockConfig) refers to system_stm32f1xx.o(.data) for SystemCoreClock
    stm32f1xx_hal_rcc.o(i.HAL_RCC_DeInit) refers to system_stm32f1xx.o(.data) for SystemCoreClock
    stm32f1xx_hal_rcc.o(i.HAL_RCC_GetHCLKFreq) refers to system_stm32f1xx.o(.data) for SystemCoreClock
    stm32f1xx_hal_rcc.o(i.HAL_RCC_GetPCLK1Freq) refers to system_stm32f1xx.o(.data) for SystemCoreClock
    stm32f1xx_hal_rcc.o(i.HAL_RCC_GetPCLK1Freq) refers to system_stm32f1xx.o(.constdata) for APBPrescTable
    stm32f1xx_hal_rcc.o(i.HAL_RCC_GetPCLK2Freq) refers to system_stm32f1xx.o(.data) for SystemCoreClock
    stm32f1xx_hal_rcc.o(i.HAL_RCC_GetPCLK2Freq) refers to system_stm32f1xx.o(.constdata) for APBPrescTable
    stm32f1xx_hal_rcc.o(i.HAL_RCC_MCOConfig) refers to stm32f1xx_hal_gpio.o(i.HAL_GPIO_Init) for HAL_GPIO_Init
    stm32f1xx_hal_rcc.o(i.HAL_RCC_NMI_IRQHandler) refers to stm32f1xx_hal_rcc.o(i.HAL_RCC_CSSCallback) for HAL_RCC_CSSCallback
    stm32f1xx_hal_rcc.o(i.HAL_RCC_OscConfig) refers to sdk.o(i.HAL_GetTick) for HAL_GetTick
    stm32f1xx_hal_rcc.o(i.HAL_RCC_OscConfig) refers to stm32f1xx_hal.o(i.HAL_Delay) for HAL_Delay
    stm32f1xx_hal_rcc_ex.o(i.HAL_RCCEx_GetPeriphCLKFreq) refers to stm32f1xx_hal_rcc.o(i.HAL_RCC_GetPCLK2Freq) for HAL_RCC_GetPCLK2Freq
    stm32f1xx_hal_rcc_ex.o(i.HAL_RCCEx_PeriphCLKConfig) refers to sdk.o(i.HAL_GetTick) for HAL_GetTick
    stm32f1xx_hal_tim.o(i.HAL_TIM_Base_DeInit) refers to stm32f1xx_hal_tim.o(i.HAL_TIM_Base_MspDeInit) for HAL_TIM_Base_MspDeInit
    stm32f1xx_hal_tim.o(i.HAL_TIM_Base_Init) refers to stm32f1xx_hal_tim.o(i.HAL_TIM_Base_MspInit) for HAL_TIM_Base_MspInit
    stm32f1xx_hal_tim.o(i.HAL_TIM_Base_Init) refers to stm32f1xx_hal_tim.o(i.TIM_Base_SetConfig) for TIM_Base_SetConfig
    stm32f1xx_hal_tim.o(i.HAL_TIM_Base_Start_DMA) refers to stm32f1xx_hal_dma.o(i.HAL_DMA_Start_IT) for HAL_DMA_Start_IT
    stm32f1xx_hal_tim.o(i.HAL_TIM_Base_Start_DMA) refers to stm32f1xx_hal_tim.o(i.TIM_DMAPeriodElapsedCplt) for TIM_DMAPeriodElapsedCplt
    stm32f1xx_hal_tim.o(i.HAL_TIM_Base_Start_DMA) refers to stm32f1xx_hal_tim.o(i.TIM_DMAError) for TIM_DMAError
    stm32f1xx_hal_tim.o(i.HAL_TIM_ConfigClockSource) refers to stm32f1xx_hal_tim.o(i.TIM_ETR_SetConfig) for TIM_ETR_SetConfig
    stm32f1xx_hal_tim.o(i.HAL_TIM_ConfigClockSource) refers to stm32f1xx_hal_tim.o(i.TIM_TI1_ConfigInputStage) for TIM_TI1_ConfigInputStage
    stm32f1xx_hal_tim.o(i.HAL_TIM_ConfigClockSource) refers to stm32f1xx_hal_tim.o(i.TIM_TI2_ConfigInputStage) for TIM_TI2_ConfigInputStage
    stm32f1xx_hal_tim.o(i.HAL_TIM_ConfigClockSource) refers to stm32f1xx_hal_tim.o(i.TIM_ITRx_SetConfig) for TIM_ITRx_SetConfig
    stm32f1xx_hal_tim.o(i.HAL_TIM_ConfigOCrefClear) refers to stm32f1xx_hal_tim.o(i.TIM_ETR_SetConfig) for TIM_ETR_SetConfig
    stm32f1xx_hal_tim.o(i.HAL_TIM_DMABurst_ReadStart) refers to stm32f1xx_hal_dma.o(i.HAL_DMA_Start_IT) for HAL_DMA_Start_IT
    stm32f1xx_hal_tim.o(i.HAL_TIM_DMABurst_ReadStart) refers to stm32f1xx_hal_tim.o(i.TIM_DMAError) for TIM_DMAError
    stm32f1xx_hal_tim.o(i.HAL_TIM_DMABurst_ReadStart) refers to stm32f1xx_hal_tim.o(i.TIM_DMACaptureCplt) for TIM_DMACaptureCplt
    stm32f1xx_hal_tim.o(i.HAL_TIM_DMABurst_ReadStart) refers to stm32f1xx_hal_tim.o(i.TIM_DMAPeriodElapsedCplt) for TIM_DMAPeriodElapsedCplt
    stm32f1xx_hal_tim.o(i.HAL_TIM_DMABurst_ReadStart) refers to stm32f1xx_hal_tim_ex.o(i.TIMEx_DMACommutationCplt) for TIMEx_DMACommutationCplt
    stm32f1xx_hal_tim.o(i.HAL_TIM_DMABurst_ReadStart) refers to stm32f1xx_hal_tim.o(i.TIM_DMATriggerCplt) for TIM_DMATriggerCplt
    stm32f1xx_hal_tim.o(i.HAL_TIM_DMABurst_ReadStop) refers to stm32f1xx_hal_dma.o(i.HAL_DMA_Abort) for HAL_DMA_Abort
    stm32f1xx_hal_tim.o(i.HAL_TIM_DMABurst_WriteStart) refers to stm32f1xx_hal_dma.o(i.HAL_DMA_Start_IT) for HAL_DMA_Start_IT
    stm32f1xx_hal_tim.o(i.HAL_TIM_DMABurst_WriteStart) refers to stm32f1xx_hal_tim.o(i.TIM_DMAError) for TIM_DMAError
    stm32f1xx_hal_tim.o(i.HAL_TIM_DMABurst_WriteStart) refers to stm32f1xx_hal_tim.o(i.TIM_DMADelayPulseCplt) for TIM_DMADelayPulseCplt
    stm32f1xx_hal_tim.o(i.HAL_TIM_DMABurst_WriteStart) refers to stm32f1xx_hal_tim.o(i.TIM_DMAPeriodElapsedCplt) for TIM_DMAPeriodElapsedCplt
    stm32f1xx_hal_tim.o(i.HAL_TIM_DMABurst_WriteStart) refers to stm32f1xx_hal_tim_ex.o(i.TIMEx_DMACommutationCplt) for TIMEx_DMACommutationCplt
    stm32f1xx_hal_tim.o(i.HAL_TIM_DMABurst_WriteStart) refers to stm32f1xx_hal_tim.o(i.TIM_DMATriggerCplt) for TIM_DMATriggerCplt
    stm32f1xx_hal_tim.o(i.HAL_TIM_DMABurst_WriteStop) refers to stm32f1xx_hal_dma.o(i.HAL_DMA_Abort) for HAL_DMA_Abort
    stm32f1xx_hal_tim.o(i.HAL_TIM_Encoder_DeInit) refers to stm32f1xx_hal_tim.o(i.HAL_TIM_Encoder_MspDeInit) for HAL_TIM_Encoder_MspDeInit
    stm32f1xx_hal_tim.o(i.HAL_TIM_Encoder_Init) refers to stm32f1xx_hal_tim.o(i.HAL_TIM_Encoder_MspInit) for HAL_TIM_Encoder_MspInit
    stm32f1xx_hal_tim.o(i.HAL_TIM_Encoder_Init) refers to stm32f1xx_hal_tim.o(i.TIM_Base_SetConfig) for TIM_Base_SetConfig
    stm32f1xx_hal_tim.o(i.HAL_TIM_Encoder_Start) refers to stm32f1xx_hal_tim.o(i.TIM_CCxChannelCmd) for TIM_CCxChannelCmd
    stm32f1xx_hal_tim.o(i.HAL_TIM_Encoder_Start_DMA) refers to stm32f1xx_hal_dma.o(i.HAL_DMA_Start_IT) for HAL_DMA_Start_IT
    stm32f1xx_hal_tim.o(i.HAL_TIM_Encoder_Start_DMA) refers to stm32f1xx_hal_tim.o(i.TIM_CCxChannelCmd) for TIM_CCxChannelCmd
    stm32f1xx_hal_tim.o(i.HAL_TIM_Encoder_Start_DMA) refers to stm32f1xx_hal_tim.o(i.TIM_DMACaptureCplt) for TIM_DMACaptureCplt
    stm32f1xx_hal_tim.o(i.HAL_TIM_Encoder_Start_DMA) refers to stm32f1xx_hal_tim.o(i.TIM_DMAError) for TIM_DMAError
    stm32f1xx_hal_tim.o(i.HAL_TIM_Encoder_Start_IT) refers to stm32f1xx_hal_tim.o(i.TIM_CCxChannelCmd) for TIM_CCxChannelCmd
    stm32f1xx_hal_tim.o(i.HAL_TIM_Encoder_Stop) refers to stm32f1xx_hal_tim.o(i.TIM_CCxChannelCmd) for TIM_CCxChannelCmd
    stm32f1xx_hal_tim.o(i.HAL_TIM_Encoder_Stop_DMA) refers to stm32f1xx_hal_tim.o(i.TIM_CCxChannelCmd) for TIM_CCxChannelCmd
    stm32f1xx_hal_tim.o(i.HAL_TIM_Encoder_Stop_IT) refers to stm32f1xx_hal_tim.o(i.TIM_CCxChannelCmd) for TIM_CCxChannelCmd
    stm32f1xx_hal_tim.o(i.HAL_TIM_IC_ConfigChannel) refers to stm32f1xx_hal_tim.o(i.TIM_TI1_SetConfig) for TIM_TI1_SetConfig
    stm32f1xx_hal_tim.o(i.HAL_TIM_IC_ConfigChannel) refers to stm32f1xx_hal_tim.o(i.TIM_TI2_SetConfig) for TIM_TI2_SetConfig
    stm32f1xx_hal_tim.o(i.HAL_TIM_IC_DeInit) refers to stm32f1xx_hal_tim.o(i.HAL_TIM_IC_MspDeInit) for HAL_TIM_IC_MspDeInit
    stm32f1xx_hal_tim.o(i.HAL_TIM_IC_Init) refers to stm32f1xx_hal_tim.o(i.HAL_TIM_IC_MspInit) for HAL_TIM_IC_MspInit
    stm32f1xx_hal_tim.o(i.HAL_TIM_IC_Init) refers to stm32f1xx_hal_tim.o(i.TIM_Base_SetConfig) for TIM_Base_SetConfig
    stm32f1xx_hal_tim.o(i.HAL_TIM_IC_Start) refers to stm32f1xx_hal_tim.o(i.TIM_CCxChannelCmd) for TIM_CCxChannelCmd
    stm32f1xx_hal_tim.o(i.HAL_TIM_IC_Start_DMA) refers to stm32f1xx_hal_dma.o(i.HAL_DMA_Start_IT) for HAL_DMA_Start_IT
    stm32f1xx_hal_tim.o(i.HAL_TIM_IC_Start_DMA) refers to stm32f1xx_hal_tim.o(i.TIM_CCxChannelCmd) for TIM_CCxChannelCmd
    stm32f1xx_hal_tim.o(i.HAL_TIM_IC_Start_DMA) refers to stm32f1xx_hal_tim.o(i.TIM_DMACaptureCplt) for TIM_DMACaptureCplt
    stm32f1xx_hal_tim.o(i.HAL_TIM_IC_Start_DMA) refers to stm32f1xx_hal_tim.o(i.TIM_DMAError) for TIM_DMAError
    stm32f1xx_hal_tim.o(i.HAL_TIM_IC_Start_IT) refers to stm32f1xx_hal_tim.o(i.TIM_CCxChannelCmd) for TIM_CCxChannelCmd
    stm32f1xx_hal_tim.o(i.HAL_TIM_IC_Stop) refers to stm32f1xx_hal_tim.o(i.TIM_CCxChannelCmd) for TIM_CCxChannelCmd
    stm32f1xx_hal_tim.o(i.HAL_TIM_IC_Stop_DMA) refers to stm32f1xx_hal_tim.o(i.TIM_CCxChannelCmd) for TIM_CCxChannelCmd
    stm32f1xx_hal_tim.o(i.HAL_TIM_IC_Stop_IT) refers to stm32f1xx_hal_tim.o(i.TIM_CCxChannelCmd) for TIM_CCxChannelCmd
    stm32f1xx_hal_tim.o(i.HAL_TIM_IRQHandler) refers to stm32f1xx_hal_tim.o(i.HAL_TIM_IC_CaptureCallback) for HAL_TIM_IC_CaptureCallback
    stm32f1xx_hal_tim.o(i.HAL_TIM_IRQHandler) refers to stm32f1xx_hal_tim.o(i.HAL_TIM_OC_DelayElapsedCallback) for HAL_TIM_OC_DelayElapsedCallback
    stm32f1xx_hal_tim.o(i.HAL_TIM_IRQHandler) refers to stm32f1xx_hal_tim.o(i.HAL_TIM_PWM_PulseFinishedCallback) for HAL_TIM_PWM_PulseFinishedCallback
    stm32f1xx_hal_tim.o(i.HAL_TIM_IRQHandler) refers to stm32f1xx_hal_tim.o(i.HAL_TIM_PeriodElapsedCallback) for HAL_TIM_PeriodElapsedCallback
    stm32f1xx_hal_tim.o(i.HAL_TIM_IRQHandler) refers to stm32f1xx_hal_tim_ex.o(i.HAL_TIMEx_BreakCallback) for HAL_TIMEx_BreakCallback
    stm32f1xx_hal_tim.o(i.HAL_TIM_IRQHandler) refers to stm32f1xx_hal_tim.o(i.HAL_TIM_TriggerCallback) for HAL_TIM_TriggerCallback
    stm32f1xx_hal_tim.o(i.HAL_TIM_IRQHandler) refers to stm32f1xx_hal_tim_ex.o(i.HAL_TIMEx_CommutationCallback) for HAL_TIMEx_CommutationCallback
    stm32f1xx_hal_tim.o(i.HAL_TIM_OC_ConfigChannel) refers to stm32f1xx_hal_tim.o(i.TIM_OC1_SetConfig) for TIM_OC1_SetConfig
    stm32f1xx_hal_tim.o(i.HAL_TIM_OC_ConfigChannel) refers to stm32f1xx_hal_tim.o(i.TIM_OC2_SetConfig) for TIM_OC2_SetConfig
    stm32f1xx_hal_tim.o(i.HAL_TIM_OC_ConfigChannel) refers to stm32f1xx_hal_tim.o(i.TIM_OC3_SetConfig) for TIM_OC3_SetConfig
    stm32f1xx_hal_tim.o(i.HAL_TIM_OC_ConfigChannel) refers to stm32f1xx_hal_tim.o(i.TIM_OC4_SetConfig) for TIM_OC4_SetConfig
    stm32f1xx_hal_tim.o(i.HAL_TIM_OC_DeInit) refers to stm32f1xx_hal_tim.o(i.HAL_TIM_OC_MspDeInit) for HAL_TIM_OC_MspDeInit
    stm32f1xx_hal_tim.o(i.HAL_TIM_OC_Init) refers to stm32f1xx_hal_tim.o(i.HAL_TIM_OC_MspInit) for HAL_TIM_OC_MspInit
    stm32f1xx_hal_tim.o(i.HAL_TIM_OC_Init) refers to stm32f1xx_hal_tim.o(i.TIM_Base_SetConfig) for TIM_Base_SetConfig
    stm32f1xx_hal_tim.o(i.HAL_TIM_OC_Start) refers to stm32f1xx_hal_tim.o(i.TIM_CCxChannelCmd) for TIM_CCxChannelCmd
    stm32f1xx_hal_tim.o(i.HAL_TIM_OC_Start_DMA) refers to stm32f1xx_hal_dma.o(i.HAL_DMA_Start_IT) for HAL_DMA_Start_IT
    stm32f1xx_hal_tim.o(i.HAL_TIM_OC_Start_DMA) refers to stm32f1xx_hal_tim.o(i.TIM_CCxChannelCmd) for TIM_CCxChannelCmd
    stm32f1xx_hal_tim.o(i.HAL_TIM_OC_Start_DMA) refers to stm32f1xx_hal_tim.o(i.TIM_DMADelayPulseCplt) for TIM_DMADelayPulseCplt
    stm32f1xx_hal_tim.o(i.HAL_TIM_OC_Start_DMA) refers to stm32f1xx_hal_tim.o(i.TIM_DMAError) for TIM_DMAError
    stm32f1xx_hal_tim.o(i.HAL_TIM_OC_Start_IT) refers to stm32f1xx_hal_tim.o(i.TIM_CCxChannelCmd) for TIM_CCxChannelCmd
    stm32f1xx_hal_tim.o(i.HAL_TIM_OC_Stop) refers to stm32f1xx_hal_tim.o(i.TIM_CCxChannelCmd) for TIM_CCxChannelCmd
    stm32f1xx_hal_tim.o(i.HAL_TIM_OC_Stop_DMA) refers to stm32f1xx_hal_tim.o(i.TIM_CCxChannelCmd) for TIM_CCxChannelCmd
    stm32f1xx_hal_tim.o(i.HAL_TIM_OC_Stop_IT) refers to stm32f1xx_hal_tim.o(i.TIM_CCxChannelCmd) for TIM_CCxChannelCmd
    stm32f1xx_hal_tim.o(i.HAL_TIM_OnePulse_ConfigChannel) refers to stm32f1xx_hal_tim.o(i.TIM_OC1_SetConfig) for TIM_OC1_SetConfig
    stm32f1xx_hal_tim.o(i.HAL_TIM_OnePulse_ConfigChannel) refers to stm32f1xx_hal_tim.o(i.TIM_OC2_SetConfig) for TIM_OC2_SetConfig
    stm32f1xx_hal_tim.o(i.HAL_TIM_OnePulse_ConfigChannel) refers to stm32f1xx_hal_tim.o(i.TIM_TI1_SetConfig) for TIM_TI1_SetConfig
    stm32f1xx_hal_tim.o(i.HAL_TIM_OnePulse_ConfigChannel) refers to stm32f1xx_hal_tim.o(i.TIM_TI2_SetConfig) for TIM_TI2_SetConfig
    stm32f1xx_hal_tim.o(i.HAL_TIM_OnePulse_DeInit) refers to stm32f1xx_hal_tim.o(i.HAL_TIM_OnePulse_MspDeInit) for HAL_TIM_OnePulse_MspDeInit
    stm32f1xx_hal_tim.o(i.HAL_TIM_OnePulse_Init) refers to stm32f1xx_hal_tim.o(i.HAL_TIM_OnePulse_MspInit) for HAL_TIM_OnePulse_MspInit
    stm32f1xx_hal_tim.o(i.HAL_TIM_OnePulse_Init) refers to stm32f1xx_hal_tim.o(i.TIM_Base_SetConfig) for TIM_Base_SetConfig
    stm32f1xx_hal_tim.o(i.HAL_TIM_OnePulse_Start) refers to stm32f1xx_hal_tim.o(i.TIM_CCxChannelCmd) for TIM_CCxChannelCmd
    stm32f1xx_hal_tim.o(i.HAL_TIM_OnePulse_Start_IT) refers to stm32f1xx_hal_tim.o(i.TIM_CCxChannelCmd) for TIM_CCxChannelCmd
    stm32f1xx_hal_tim.o(i.HAL_TIM_OnePulse_Stop) refers to stm32f1xx_hal_tim.o(i.TIM_CCxChannelCmd) for TIM_CCxChannelCmd
    stm32f1xx_hal_tim.o(i.HAL_TIM_OnePulse_Stop_IT) refers to stm32f1xx_hal_tim.o(i.TIM_CCxChannelCmd) for TIM_CCxChannelCmd
    stm32f1xx_hal_tim.o(i.HAL_TIM_PWM_ConfigChannel) refers to stm32f1xx_hal_tim.o(i.TIM_OC1_SetConfig) for TIM_OC1_SetConfig
    stm32f1xx_hal_tim.o(i.HAL_TIM_PWM_ConfigChannel) refers to stm32f1xx_hal_tim.o(i.TIM_OC2_SetConfig) for TIM_OC2_SetConfig
    stm32f1xx_hal_tim.o(i.HAL_TIM_PWM_ConfigChannel) refers to stm32f1xx_hal_tim.o(i.TIM_OC3_SetConfig) for TIM_OC3_SetConfig
    stm32f1xx_hal_tim.o(i.HAL_TIM_PWM_ConfigChannel) refers to stm32f1xx_hal_tim.o(i.TIM_OC4_SetConfig) for TIM_OC4_SetConfig
    stm32f1xx_hal_tim.o(i.HAL_TIM_PWM_DeInit) refers to stm32f1xx_hal_tim.o(i.HAL_TIM_PWM_MspDeInit) for HAL_TIM_PWM_MspDeInit
    stm32f1xx_hal_tim.o(i.HAL_TIM_PWM_Init) refers to stm32f1xx_hal_tim.o(i.HAL_TIM_PWM_MspInit) for HAL_TIM_PWM_MspInit
    stm32f1xx_hal_tim.o(i.HAL_TIM_PWM_Init) refers to stm32f1xx_hal_tim.o(i.TIM_Base_SetConfig) for TIM_Base_SetConfig
    stm32f1xx_hal_tim.o(i.HAL_TIM_PWM_Start) refers to stm32f1xx_hal_tim.o(i.TIM_CCxChannelCmd) for TIM_CCxChannelCmd
    stm32f1xx_hal_tim.o(i.HAL_TIM_PWM_Start_DMA) refers to stm32f1xx_hal_dma.o(i.HAL_DMA_Start_IT) for HAL_DMA_Start_IT
    stm32f1xx_hal_tim.o(i.HAL_TIM_PWM_Start_DMA) refers to stm32f1xx_hal_tim.o(i.TIM_CCxChannelCmd) for TIM_CCxChannelCmd
    stm32f1xx_hal_tim.o(i.HAL_TIM_PWM_Start_DMA) refers to stm32f1xx_hal_tim.o(i.TIM_DMADelayPulseCplt) for TIM_DMADelayPulseCplt
    stm32f1xx_hal_tim.o(i.HAL_TIM_PWM_Start_DMA) refers to stm32f1xx_hal_tim.o(i.TIM_DMAError) for TIM_DMAError
    stm32f1xx_hal_tim.o(i.HAL_TIM_PWM_Start_IT) refers to stm32f1xx_hal_tim.o(i.TIM_CCxChannelCmd) for TIM_CCxChannelCmd
    stm32f1xx_hal_tim.o(i.HAL_TIM_PWM_Stop) refers to stm32f1xx_hal_tim.o(i.TIM_CCxChannelCmd) for TIM_CCxChannelCmd
    stm32f1xx_hal_tim.o(i.HAL_TIM_PWM_Stop_DMA) refers to stm32f1xx_hal_tim.o(i.TIM_CCxChannelCmd) for TIM_CCxChannelCmd
    stm32f1xx_hal_tim.o(i.HAL_TIM_PWM_Stop_IT) refers to stm32f1xx_hal_tim.o(i.TIM_CCxChannelCmd) for TIM_CCxChannelCmd
    stm32f1xx_hal_tim.o(i.HAL_TIM_SlaveConfigSynchronization) refers to stm32f1xx_hal_tim.o(i.TIM_SlaveTimer_SetConfig) for TIM_SlaveTimer_SetConfig
    stm32f1xx_hal_tim.o(i.HAL_TIM_SlaveConfigSynchronization_IT) refers to stm32f1xx_hal_tim.o(i.TIM_SlaveTimer_SetConfig) for TIM_SlaveTimer_SetConfig
    stm32f1xx_hal_tim.o(i.TIM_DMACaptureCplt) refers to stm32f1xx_hal_tim.o(i.HAL_TIM_IC_CaptureCallback) for HAL_TIM_IC_CaptureCallback
    stm32f1xx_hal_tim.o(i.TIM_DMADelayPulseCplt) refers to stm32f1xx_hal_tim.o(i.HAL_TIM_PWM_PulseFinishedCallback) for HAL_TIM_PWM_PulseFinishedCallback
    stm32f1xx_hal_tim.o(i.TIM_DMAError) refers to stm32f1xx_hal_tim.o(i.HAL_TIM_ErrorCallback) for HAL_TIM_ErrorCallback
    stm32f1xx_hal_tim.o(i.TIM_DMAPeriodElapsedCplt) refers to stm32f1xx_hal_tim.o(i.HAL_TIM_PeriodElapsedCallback) for HAL_TIM_PeriodElapsedCallback
    stm32f1xx_hal_tim.o(i.TIM_DMATriggerCplt) refers to stm32f1xx_hal_tim.o(i.HAL_TIM_TriggerCallback) for HAL_TIM_TriggerCallback
    stm32f1xx_hal_tim.o(i.TIM_SlaveTimer_SetConfig) refers to stm32f1xx_hal_tim.o(i.TIM_ETR_SetConfig) for TIM_ETR_SetConfig
    stm32f1xx_hal_tim.o(i.TIM_SlaveTimer_SetConfig) refers to stm32f1xx_hal_tim.o(i.TIM_TI1_ConfigInputStage) for TIM_TI1_ConfigInputStage
    stm32f1xx_hal_tim.o(i.TIM_SlaveTimer_SetConfig) refers to stm32f1xx_hal_tim.o(i.TIM_TI2_ConfigInputStage) for TIM_TI2_ConfigInputStage
    stm32f1xx_hal_tim_ex.o(i.HAL_TIMEx_ConfigCommutationEvent_DMA) refers to stm32f1xx_hal_tim_ex.o(i.TIMEx_DMACommutationCplt) for TIMEx_DMACommutationCplt
    stm32f1xx_hal_tim_ex.o(i.HAL_TIMEx_ConfigCommutationEvent_DMA) refers to stm32f1xx_hal_tim.o(i.TIM_DMAError) for TIM_DMAError
    stm32f1xx_hal_tim_ex.o(i.HAL_TIMEx_HallSensor_DeInit) refers to stm32f1xx_hal_tim_ex.o(i.HAL_TIMEx_HallSensor_MspDeInit) for HAL_TIMEx_HallSensor_MspDeInit
    stm32f1xx_hal_tim_ex.o(i.HAL_TIMEx_HallSensor_Init) refers to stm32f1xx_hal_tim_ex.o(i.HAL_TIMEx_HallSensor_MspInit) for HAL_TIMEx_HallSensor_MspInit
    stm32f1xx_hal_tim_ex.o(i.HAL_TIMEx_HallSensor_Init) refers to stm32f1xx_hal_tim.o(i.TIM_Base_SetConfig) for TIM_Base_SetConfig
    stm32f1xx_hal_tim_ex.o(i.HAL_TIMEx_HallSensor_Init) refers to stm32f1xx_hal_tim.o(i.TIM_TI1_SetConfig) for TIM_TI1_SetConfig
    stm32f1xx_hal_tim_ex.o(i.HAL_TIMEx_HallSensor_Init) refers to stm32f1xx_hal_tim.o(i.TIM_OC2_SetConfig) for TIM_OC2_SetConfig
    stm32f1xx_hal_tim_ex.o(i.HAL_TIMEx_HallSensor_Start) refers to stm32f1xx_hal_tim.o(i.TIM_CCxChannelCmd) for TIM_CCxChannelCmd
    stm32f1xx_hal_tim_ex.o(i.HAL_TIMEx_HallSensor_Start_DMA) refers to stm32f1xx_hal_tim.o(i.TIM_CCxChannelCmd) for TIM_CCxChannelCmd
    stm32f1xx_hal_tim_ex.o(i.HAL_TIMEx_HallSensor_Start_DMA) refers to stm32f1xx_hal_dma.o(i.HAL_DMA_Start_IT) for HAL_DMA_Start_IT
    stm32f1xx_hal_tim_ex.o(i.HAL_TIMEx_HallSensor_Start_DMA) refers to stm32f1xx_hal_tim.o(i.TIM_DMACaptureCplt) for TIM_DMACaptureCplt
    stm32f1xx_hal_tim_ex.o(i.HAL_TIMEx_HallSensor_Start_DMA) refers to stm32f1xx_hal_tim.o(i.TIM_DMAError) for TIM_DMAError
    stm32f1xx_hal_tim_ex.o(i.HAL_TIMEx_HallSensor_Start_IT) refers to stm32f1xx_hal_tim.o(i.TIM_CCxChannelCmd) for TIM_CCxChannelCmd
    stm32f1xx_hal_tim_ex.o(i.HAL_TIMEx_HallSensor_Stop) refers to stm32f1xx_hal_tim.o(i.TIM_CCxChannelCmd) for TIM_CCxChannelCmd
    stm32f1xx_hal_tim_ex.o(i.HAL_TIMEx_HallSensor_Stop_DMA) refers to stm32f1xx_hal_tim.o(i.TIM_CCxChannelCmd) for TIM_CCxChannelCmd
    stm32f1xx_hal_tim_ex.o(i.HAL_TIMEx_HallSensor_Stop_IT) refers to stm32f1xx_hal_tim.o(i.TIM_CCxChannelCmd) for TIM_CCxChannelCmd
    stm32f1xx_hal_tim_ex.o(i.HAL_TIMEx_OCN_Start) refers to stm32f1xx_hal_tim_ex.o(i.TIM_CCxNChannelCmd) for TIM_CCxNChannelCmd
    stm32f1xx_hal_tim_ex.o(i.HAL_TIMEx_OCN_Start_DMA) refers to stm32f1xx_hal_dma.o(i.HAL_DMA_Start_IT) for HAL_DMA_Start_IT
    stm32f1xx_hal_tim_ex.o(i.HAL_TIMEx_OCN_Start_DMA) refers to stm32f1xx_hal_tim_ex.o(i.TIM_CCxNChannelCmd) for TIM_CCxNChannelCmd
    stm32f1xx_hal_tim_ex.o(i.HAL_TIMEx_OCN_Start_DMA) refers to stm32f1xx_hal_tim.o(i.TIM_DMADelayPulseCplt) for TIM_DMADelayPulseCplt
    stm32f1xx_hal_tim_ex.o(i.HAL_TIMEx_OCN_Start_DMA) refers to stm32f1xx_hal_tim.o(i.TIM_DMAError) for TIM_DMAError
    stm32f1xx_hal_tim_ex.o(i.HAL_TIMEx_OCN_Start_IT) refers to stm32f1xx_hal_tim_ex.o(i.TIM_CCxNChannelCmd) for TIM_CCxNChannelCmd
    stm32f1xx_hal_tim_ex.o(i.HAL_TIMEx_OCN_Stop) refers to stm32f1xx_hal_tim_ex.o(i.TIM_CCxNChannelCmd) for TIM_CCxNChannelCmd
    stm32f1xx_hal_tim_ex.o(i.HAL_TIMEx_OCN_Stop_DMA) refers to stm32f1xx_hal_tim_ex.o(i.TIM_CCxNChannelCmd) for TIM_CCxNChannelCmd
    stm32f1xx_hal_tim_ex.o(i.HAL_TIMEx_OCN_Stop_IT) refers to stm32f1xx_hal_tim_ex.o(i.TIM_CCxNChannelCmd) for TIM_CCxNChannelCmd
    stm32f1xx_hal_tim_ex.o(i.HAL_TIMEx_OnePulseN_Start) refers to stm32f1xx_hal_tim_ex.o(i.TIM_CCxNChannelCmd) for TIM_CCxNChannelCmd
    stm32f1xx_hal_tim_ex.o(i.HAL_TIMEx_OnePulseN_Start_IT) refers to stm32f1xx_hal_tim_ex.o(i.TIM_CCxNChannelCmd) for TIM_CCxNChannelCmd
    stm32f1xx_hal_tim_ex.o(i.HAL_TIMEx_OnePulseN_Stop) refers to stm32f1xx_hal_tim_ex.o(i.TIM_CCxNChannelCmd) for TIM_CCxNChannelCmd
    stm32f1xx_hal_tim_ex.o(i.HAL_TIMEx_OnePulseN_Stop_IT) refers to stm32f1xx_hal_tim_ex.o(i.TIM_CCxNChannelCmd) for TIM_CCxNChannelCmd
    stm32f1xx_hal_tim_ex.o(i.HAL_TIMEx_PWMN_Start) refers to stm32f1xx_hal_tim_ex.o(i.TIM_CCxNChannelCmd) for TIM_CCxNChannelCmd
    stm32f1xx_hal_tim_ex.o(i.HAL_TIMEx_PWMN_Start_DMA) refers to stm32f1xx_hal_dma.o(i.HAL_DMA_Start_IT) for HAL_DMA_Start_IT
    stm32f1xx_hal_tim_ex.o(i.HAL_TIMEx_PWMN_Start_DMA) refers to stm32f1xx_hal_tim_ex.o(i.TIM_CCxNChannelCmd) for TIM_CCxNChannelCmd
    stm32f1xx_hal_tim_ex.o(i.HAL_TIMEx_PWMN_Start_DMA) refers to stm32f1xx_hal_tim.o(i.TIM_DMADelayPulseCplt) for TIM_DMADelayPulseCplt
    stm32f1xx_hal_tim_ex.o(i.HAL_TIMEx_PWMN_Start_DMA) refers to stm32f1xx_hal_tim.o(i.TIM_DMAError) for TIM_DMAError
    stm32f1xx_hal_tim_ex.o(i.HAL_TIMEx_PWMN_Start_IT) refers to stm32f1xx_hal_tim_ex.o(i.TIM_CCxNChannelCmd) for TIM_CCxNChannelCmd
    stm32f1xx_hal_tim_ex.o(i.HAL_TIMEx_PWMN_Stop) refers to stm32f1xx_hal_tim_ex.o(i.TIM_CCxNChannelCmd) for TIM_CCxNChannelCmd
    stm32f1xx_hal_tim_ex.o(i.HAL_TIMEx_PWMN_Stop_DMA) refers to stm32f1xx_hal_tim_ex.o(i.TIM_CCxNChannelCmd) for TIM_CCxNChannelCmd
    stm32f1xx_hal_tim_ex.o(i.HAL_TIMEx_PWMN_Stop_IT) refers to stm32f1xx_hal_tim_ex.o(i.TIM_CCxNChannelCmd) for TIM_CCxNChannelCmd
    stm32f1xx_hal_tim_ex.o(i.TIMEx_DMACommutationCplt) refers to stm32f1xx_hal_tim_ex.o(i.HAL_TIMEx_CommutationCallback) for HAL_TIMEx_CommutationCallback
    stm32f1xx_hal_uart.o(i.HAL_HalfDuplex_Init) refers to stm32f1xx_hal_uart.o(i.HAL_UART_MspInit) for HAL_UART_MspInit
    stm32f1xx_hal_uart.o(i.HAL_HalfDuplex_Init) refers to stm32f1xx_hal_uart.o(i.UART_SetConfig) for UART_SetConfig
    stm32f1xx_hal_uart.o(i.HAL_LIN_Init) refers to stm32f1xx_hal_uart.o(i.HAL_UART_MspInit) for HAL_UART_MspInit
    stm32f1xx_hal_uart.o(i.HAL_LIN_Init) refers to stm32f1xx_hal_uart.o(i.UART_SetConfig) for UART_SetConfig
    stm32f1xx_hal_uart.o(i.HAL_MultiProcessor_Init) refers to stm32f1xx_hal_uart.o(i.HAL_UART_MspInit) for HAL_UART_MspInit
    stm32f1xx_hal_uart.o(i.HAL_MultiProcessor_Init) refers to stm32f1xx_hal_uart.o(i.UART_SetConfig) for UART_SetConfig
    stm32f1xx_hal_uart.o(i.HAL_UART_DMAStop) refers to stm32f1xx_hal_dma.o(i.HAL_DMA_Abort) for HAL_DMA_Abort
    stm32f1xx_hal_uart.o(i.HAL_UART_DeInit) refers to stm32f1xx_hal_uart.o(i.HAL_UART_MspDeInit) for HAL_UART_MspDeInit
    stm32f1xx_hal_uart.o(i.HAL_UART_IRQHandler) refers to stm32f1xx_hal_uart.o(i.UART_Receive_IT) for UART_Receive_IT
    stm32f1xx_hal_uart.o(i.HAL_UART_IRQHandler) refers to stm32f1xx_hal_uart.o(i.UART_Transmit_IT) for UART_Transmit_IT
    stm32f1xx_hal_uart.o(i.HAL_UART_IRQHandler) refers to stm32f1xx_hal_uart.o(i.HAL_UART_TxCpltCallback) for HAL_UART_TxCpltCallback
    stm32f1xx_hal_uart.o(i.HAL_UART_IRQHandler) refers to stm32f1xx_hal_uart.o(i.HAL_UART_ErrorCallback) for HAL_UART_ErrorCallback
    stm32f1xx_hal_uart.o(i.HAL_UART_Init) refers to stm32f1xx_hal_uart.o(i.HAL_UART_MspInit) for HAL_UART_MspInit
    stm32f1xx_hal_uart.o(i.HAL_UART_Init) refers to stm32f1xx_hal_uart.o(i.UART_SetConfig) for UART_SetConfig
    stm32f1xx_hal_uart.o(i.HAL_UART_Receive) refers to stm32f1xx_hal_uart.o(i.UART_WaitOnFlagUntilTimeout) for UART_WaitOnFlagUntilTimeout
    stm32f1xx_hal_uart.o(i.HAL_UART_Receive_DMA) refers to stm32f1xx_hal_dma.o(i.HAL_DMA_Start_IT) for HAL_DMA_Start_IT
    stm32f1xx_hal_uart.o(i.HAL_UART_Receive_DMA) refers to stm32f1xx_hal_uart.o(i.UART_DMAReceiveCplt) for UART_DMAReceiveCplt
    stm32f1xx_hal_uart.o(i.HAL_UART_Receive_DMA) refers to stm32f1xx_hal_uart.o(i.UART_DMARxHalfCplt) for UART_DMARxHalfCplt
    stm32f1xx_hal_uart.o(i.HAL_UART_Receive_DMA) refers to stm32f1xx_hal_uart.o(i.UART_DMAError) for UART_DMAError
    stm32f1xx_hal_uart.o(i.HAL_UART_Transmit) refers to stm32f1xx_hal_uart.o(i.UART_WaitOnFlagUntilTimeout) for UART_WaitOnFlagUntilTimeout
    stm32f1xx_hal_uart.o(i.HAL_UART_Transmit_DMA) refers to stm32f1xx_hal_dma.o(i.HAL_DMA_Start_IT) for HAL_DMA_Start_IT
    stm32f1xx_hal_uart.o(i.HAL_UART_Transmit_DMA) refers to stm32f1xx_hal_uart.o(i.UART_DMATransmitCplt) for UART_DMATransmitCplt
    stm32f1xx_hal_uart.o(i.HAL_UART_Transmit_DMA) refers to stm32f1xx_hal_uart.o(i.UART_DMATxHalfCplt) for UART_DMATxHalfCplt
    stm32f1xx_hal_uart.o(i.HAL_UART_Transmit_DMA) refers to stm32f1xx_hal_uart.o(i.UART_DMAError) for UART_DMAError
    stm32f1xx_hal_uart.o(i.UART_DMAError) refers to stm32f1xx_hal_uart.o(i.HAL_UART_ErrorCallback) for HAL_UART_ErrorCallback
    stm32f1xx_hal_uart.o(i.UART_DMAReceiveCplt) refers to stm32f1xx_hal_uart.o(i.HAL_UART_RxCpltCallback) for HAL_UART_RxCpltCallback
    stm32f1xx_hal_uart.o(i.UART_DMARxHalfCplt) refers to stm32f1xx_hal_uart.o(i.HAL_UART_RxHalfCpltCallback) for HAL_UART_RxHalfCpltCallback
    stm32f1xx_hal_uart.o(i.UART_DMATransmitCplt) refers to stm32f1xx_hal_uart.o(i.HAL_UART_TxCpltCallback) for HAL_UART_TxCpltCallback
    stm32f1xx_hal_uart.o(i.UART_DMATxHalfCplt) refers to stm32f1xx_hal_uart.o(i.HAL_UART_TxHalfCpltCallback) for HAL_UART_TxHalfCpltCallback
    stm32f1xx_hal_uart.o(i.UART_Receive_IT) refers to stm32f1xx_hal_uart.o(i.HAL_UART_RxCpltCallback) for HAL_UART_RxCpltCallback
    stm32f1xx_hal_uart.o(i.UART_SetConfig) refers to stm32f1xx_hal_rcc.o(i.HAL_RCC_GetPCLK2Freq) for HAL_RCC_GetPCLK2Freq
    stm32f1xx_hal_uart.o(i.UART_SetConfig) refers to stm32f1xx_hal_rcc.o(i.HAL_RCC_GetPCLK1Freq) for HAL_RCC_GetPCLK1Freq
    stm32f1xx_hal_uart.o(i.UART_WaitOnFlagUntilTimeout) refers to sdk.o(i.HAL_GetTick) for HAL_GetTick
    stm32f1xx_hal_usart.o(i.HAL_USART_DMAStop) refers to stm32f1xx_hal_dma.o(i.HAL_DMA_Abort) for HAL_DMA_Abort
    stm32f1xx_hal_usart.o(i.HAL_USART_DeInit) refers to stm32f1xx_hal_usart.o(i.HAL_USART_MspDeInit) for HAL_USART_MspDeInit
    stm32f1xx_hal_usart.o(i.HAL_USART_IRQHandler) refers to stm32f1xx_hal_usart.o(i.HAL_USART_ErrorCallback) for HAL_USART_ErrorCallback
    stm32f1xx_hal_usart.o(i.HAL_USART_IRQHandler) refers to stm32f1xx_hal_usart.o(i.USART_TransmitReceive_IT) for USART_TransmitReceive_IT
    stm32f1xx_hal_usart.o(i.HAL_USART_IRQHandler) refers to stm32f1xx_hal_usart.o(i.HAL_USART_TxCpltCallback) for HAL_USART_TxCpltCallback
    stm32f1xx_hal_usart.o(i.HAL_USART_IRQHandler) refers to stm32f1xx_hal_usart.o(i.USART_Receive_IT) for USART_Receive_IT
    stm32f1xx_hal_usart.o(i.HAL_USART_IRQHandler) refers to stm32f1xx_hal_usart.o(i.USART_Transmit_IT) for USART_Transmit_IT
    stm32f1xx_hal_usart.o(i.HAL_USART_Init) refers to stm32f1xx_hal_usart.o(i.HAL_USART_MspInit) for HAL_USART_MspInit
    stm32f1xx_hal_usart.o(i.HAL_USART_Init) refers to stm32f1xx_hal_usart.o(i.USART_SetConfig) for USART_SetConfig
    stm32f1xx_hal_usart.o(i.HAL_USART_Receive) refers to stm32f1xx_hal_usart.o(i.USART_WaitOnFlagUntilTimeout) for USART_WaitOnFlagUntilTimeout
    stm32f1xx_hal_usart.o(i.HAL_USART_Receive_DMA) refers to stm32f1xx_hal_dma.o(i.HAL_DMA_Start_IT) for HAL_DMA_Start_IT
    stm32f1xx_hal_usart.o(i.HAL_USART_Receive_DMA) refers to stm32f1xx_hal_usart.o(i.USART_DMAReceiveCplt) for USART_DMAReceiveCplt
    stm32f1xx_hal_usart.o(i.HAL_USART_Receive_DMA) refers to stm32f1xx_hal_usart.o(i.USART_DMARxHalfCplt) for USART_DMARxHalfCplt
    stm32f1xx_hal_usart.o(i.HAL_USART_Receive_DMA) refers to stm32f1xx_hal_usart.o(i.USART_DMAError) for USART_DMAError
    stm32f1xx_hal_usart.o(i.HAL_USART_Transmit) refers to stm32f1xx_hal_usart.o(i.USART_WaitOnFlagUntilTimeout) for USART_WaitOnFlagUntilTimeout
    stm32f1xx_hal_usart.o(i.HAL_USART_TransmitReceive) refers to stm32f1xx_hal_usart.o(i.USART_WaitOnFlagUntilTimeout) for USART_WaitOnFlagUntilTimeout
    stm32f1xx_hal_usart.o(i.HAL_USART_TransmitReceive_DMA) refers to stm32f1xx_hal_dma.o(i.HAL_DMA_Start_IT) for HAL_DMA_Start_IT
    stm32f1xx_hal_usart.o(i.HAL_USART_TransmitReceive_DMA) refers to stm32f1xx_hal_usart.o(i.USART_DMAReceiveCplt) for USART_DMAReceiveCplt
    stm32f1xx_hal_usart.o(i.HAL_USART_TransmitReceive_DMA) refers to stm32f1xx_hal_usart.o(i.USART_DMARxHalfCplt) for USART_DMARxHalfCplt
    stm32f1xx_hal_usart.o(i.HAL_USART_TransmitReceive_DMA) refers to stm32f1xx_hal_usart.o(i.USART_DMATransmitCplt) for USART_DMATransmitCplt
    stm32f1xx_hal_usart.o(i.HAL_USART_TransmitReceive_DMA) refers to stm32f1xx_hal_usart.o(i.USART_DMATxHalfCplt) for USART_DMATxHalfCplt
    stm32f1xx_hal_usart.o(i.HAL_USART_TransmitReceive_DMA) refers to stm32f1xx_hal_usart.o(i.USART_DMAError) for USART_DMAError
    stm32f1xx_hal_usart.o(i.HAL_USART_Transmit_DMA) refers to stm32f1xx_hal_dma.o(i.HAL_DMA_Start_IT) for HAL_DMA_Start_IT
    stm32f1xx_hal_usart.o(i.HAL_USART_Transmit_DMA) refers to stm32f1xx_hal_usart.o(i.USART_DMATransmitCplt) for USART_DMATransmitCplt
    stm32f1xx_hal_usart.o(i.HAL_USART_Transmit_DMA) refers to stm32f1xx_hal_usart.o(i.USART_DMATxHalfCplt) for USART_DMATxHalfCplt
    stm32f1xx_hal_usart.o(i.HAL_USART_Transmit_DMA) refers to stm32f1xx_hal_usart.o(i.USART_DMAError) for USART_DMAError
    stm32f1xx_hal_usart.o(i.USART_DMAError) refers to stm32f1xx_hal_usart.o(i.HAL_USART_ErrorCallback) for HAL_USART_ErrorCallback
    stm32f1xx_hal_usart.o(i.USART_DMAReceiveCplt) refers to stm32f1xx_hal_usart.o(i.HAL_USART_TxRxCpltCallback) for HAL_USART_TxRxCpltCallback
    stm32f1xx_hal_usart.o(i.USART_DMAReceiveCplt) refers to stm32f1xx_hal_usart.o(i.HAL_USART_RxCpltCallback) for HAL_USART_RxCpltCallback
    stm32f1xx_hal_usart.o(i.USART_DMARxHalfCplt) refers to stm32f1xx_hal_usart.o(i.HAL_USART_RxHalfCpltCallback) for HAL_USART_RxHalfCpltCallback
    stm32f1xx_hal_usart.o(i.USART_DMATransmitCplt) refers to stm32f1xx_hal_usart.o(i.HAL_USART_TxCpltCallback) for HAL_USART_TxCpltCallback
    stm32f1xx_hal_usart.o(i.USART_DMATxHalfCplt) refers to stm32f1xx_hal_usart.o(i.HAL_USART_TxHalfCpltCallback) for HAL_USART_TxHalfCpltCallback
    stm32f1xx_hal_usart.o(i.USART_Receive_IT) refers to stm32f1xx_hal_usart.o(i.HAL_USART_RxCpltCallback) for HAL_USART_RxCpltCallback
    stm32f1xx_hal_usart.o(i.USART_SetConfig) refers to stm32f1xx_hal_rcc.o(i.HAL_RCC_GetPCLK2Freq) for HAL_RCC_GetPCLK2Freq
    stm32f1xx_hal_usart.o(i.USART_SetConfig) refers to stm32f1xx_hal_rcc.o(i.HAL_RCC_GetPCLK1Freq) for HAL_RCC_GetPCLK1Freq
    stm32f1xx_hal_usart.o(i.USART_TransmitReceive_IT) refers to stm32f1xx_hal_usart.o(i.HAL_USART_TxRxCpltCallback) for HAL_USART_TxRxCpltCallback
    stm32f1xx_hal_usart.o(i.USART_WaitOnFlagUntilTimeout) refers to sdk.o(i.HAL_GetTick) for HAL_GetTick
    system_stm32f1xx.o(i.SystemCoreClockUpdate) refers to system_stm32f1xx.o(.data) for .data
    system_stm32f1xx.o(i.SystemCoreClockUpdate) refers to system_stm32f1xx.o(.constdata) for .constdata
    uart.o(i.USART2_IRQHandler) refers to circ_buf.o(i.circ_buf_count_free) for circ_buf_count_free
    uart.o(i.USART2_IRQHandler) refers to circ_buf.o(i.circ_buf_push) for circ_buf_push
    uart.o(i.USART2_IRQHandler) refers to circ_buf.o(i.circ_buf_write) for circ_buf_write
    uart.o(i.USART2_IRQHandler) refers to circ_buf.o(i.circ_buf_count_used) for circ_buf_count_used
    uart.o(i.USART2_IRQHandler) refers to circ_buf.o(i.circ_buf_pop) for circ_buf_pop
    uart.o(i.USART2_IRQHandler) refers to uart.o(.bss) for .bss
    uart.o(i.clear_buffers) refers to circ_buf.o(i.circ_buf_init) for circ_buf_init
    uart.o(i.clear_buffers) refers to uart.o(.bss) for .bss
    uart.o(i.uart_get_configuration) refers to uart.o(.data) for .data
    uart.o(i.uart_initialize) refers to uart.o(i.clear_buffers) for clear_buffers
    uart.o(i.uart_initialize) refers to stm32f1xx_hal_gpio.o(i.HAL_GPIO_Init) for HAL_GPIO_Init
    uart.o(i.uart_initialize) refers to stm32f1xx_hal_gpio.o(i.HAL_GPIO_WritePin) for HAL_GPIO_WritePin
    uart.o(i.uart_read_data) refers to circ_buf.o(i.circ_buf_read) for circ_buf_read
    uart.o(i.uart_read_data) refers to uart.o(.bss) for .bss
    uart.o(i.uart_reset) refers to uart.o(i.clear_buffers) for clear_buffers
    uart.o(i.uart_set_configuration) refers to rt_memclr_w.o(.text) for __aeabi_memclr4
    uart.o(i.uart_set_configuration) refers to uart.o(i.clear_buffers) for clear_buffers
    uart.o(i.uart_set_configuration) refers to stm32f1xx_hal_uart.o(i.HAL_UART_DeInit) for HAL_UART_DeInit
    uart.o(i.uart_set_configuration) refers to util.o(i._util_assert) for _util_assert
    uart.o(i.uart_set_configuration) refers to stm32f1xx_hal_uart.o(i.HAL_UART_Init) for HAL_UART_Init
    uart.o(i.uart_set_configuration) refers to uart.o(.data) for .data
    uart.o(i.uart_uninitialize) refers to uart.o(i.clear_buffers) for clear_buffers
    uart.o(i.uart_write_data) refers to circ_buf.o(i.circ_buf_write) for circ_buf_write
    uart.o(i.uart_write_data) refers to uart.o(.bss) for .bss
    uart.o(i.uart_write_free) refers to circ_buf.o(i.circ_buf_count_free) for circ_buf_count_free
    uart.o(i.uart_write_free) refers to uart.o(.bss) for .bss
    usb_config.o(i.usbd_class_init) refers to rt_memcpy_w.o(.text) for __aeabi_memcpy4
    usb_config.o(i.usbd_class_init) refers to rt_memcpy_v6.o(.text) for __aeabi_memcpy
    usb_config.o(i.usbd_class_init) refers to vfs_manager.o(i.usbd_msc_init) for usbd_msc_init
    usb_config.o(i.usbd_class_init) refers to usb_config.o(.bss) for USBD_ConfigDescriptor
    usb_config.o(i.usbd_class_init) refers to usb_config.o(.data) for .data
    usb_config.o(.constdata) refers to usbd_core.o(i.USBD_EndPoint0) for USBD_EndPoint0
    usb_config.o(.constdata) refers to usbd_msc.o(i.USBD_MSC_EP_BULK_Event) for USBD_MSC_EP_BULK_Event
    usb_config.o(.data) refers to usb_config.o(.conststring) for .conststring
    usbd_stm32f103.o(i.USBD_ClrStallEP) refers to usbd_stm32f103.o(i.EP_Reset) for EP_Reset
    usbd_stm32f103.o(i.USBD_ClrStallEP) refers to usbd_stm32f103.o(i.EP_Status) for EP_Status
    usbd_stm32f103.o(i.USBD_ConfigEP) refers to usbd_stm32f103.o(.data) for .data
    usbd_stm32f103.o(i.USBD_Configure) refers to usbd_stm32f103.o(.data) for .data
    usbd_stm32f103.o(i.USBD_DisableEP) refers to usbd_stm32f103.o(i.EP_Status) for EP_Status
    usbd_stm32f103.o(i.USBD_EnableEP) refers to usbd_stm32f103.o(i.EP_Status) for EP_Status
    usbd_stm32f103.o(i.USBD_Handler) refers to usbd_stm32f103.o(i.USBD_Reset) for USBD_Reset
    usbd_stm32f103.o(i.USBD_Handler) refers to usbd_core.o(i.usbd_reset_core) for usbd_reset_core
    usbd_stm32f103.o(i.USBD_Handler) refers to usbd_stm32f103.o(i.USBD_Suspend) for USBD_Suspend
    usbd_stm32f103.o(i.USBD_Handler) refers to usbd_stm32f103.o(i.USBD_WakeUp) for USBD_WakeUp
    usbd_stm32f103.o(i.USBD_Handler) refers to usbd_stm32f103.o(.data) for .data
    usbd_stm32f103.o(i.USBD_Handler) refers to usb_config.o(.constdata) for USBD_P_Reset_Event
    usbd_stm32f103.o(i.USBD_Handler) refers to usb_config.o(.constdata) for USBD_P_Suspend_Event
    usbd_stm32f103.o(i.USBD_Handler) refers to usb_config.o(.constdata) for USBD_P_Resume_Event
    usbd_stm32f103.o(i.USBD_Handler) refers to usb_config.o(.constdata) for USBD_P_SOF_Event
    usbd_stm32f103.o(i.USBD_Handler) refers to usb_config.o(.constdata) for USBD_P_Error_Event
    usbd_stm32f103.o(i.USBD_Handler) refers to usb_config.o(.constdata) for USBD_P_EP
    usbd_stm32f103.o(i.USBD_Handler) refers to usbd_stm32f103.o(.bss) for .bss
    usbd_stm32f103.o(i.USBD_Init) refers to usbd_stm32f103.o(i.__NVIC_EnableIRQ) for __NVIC_EnableIRQ
    usbd_stm32f103.o(i.USBD_IntrEna) refers to usbd_stm32f103.o(i.__NVIC_EnableIRQ) for __NVIC_EnableIRQ
    usbd_stm32f103.o(i.USBD_ReadEP) refers to usbd_stm32f103.o(i.EP_Status) for EP_Status
    usbd_stm32f103.o(i.USBD_ReadEP) refers to usbd_stm32f103.o(.data) for .data
    usbd_stm32f103.o(i.USBD_Reset) refers to usbd_stm32f103.o(i.__NVIC_EnableIRQ) for __NVIC_EnableIRQ
    usbd_stm32f103.o(i.USBD_Reset) refers to usb_config.o(.constdata) for USBD_P_Error_Event
    usbd_stm32f103.o(i.USBD_Reset) refers to usb_config.o(.constdata) for USBD_P_SOF_Event
    usbd_stm32f103.o(i.USBD_Reset) refers to usbd_stm32f103.o(.data) for .data
    usbd_stm32f103.o(i.USBD_ResetEP) refers to usbd_stm32f103.o(i.EP_Reset) for EP_Reset
    usbd_stm32f103.o(i.USBD_SetStallEP) refers to usbd_stm32f103.o(i.EP_Status) for EP_Status
    usbd_stm32f103.o(i.USBD_WriteEP) refers to usbd_stm32f103.o(i.EP_Status) for EP_Status
    usbd_stm32f103.o(i.USBD_WriteEP) refers to usbd_stm32f103.o(.data) for .data
    usbd_stm32f103.o(i.USB_LP_CAN1_RX0_IRQHandler) refers to usbd_stm32f103.o(i.stat_enque) for stat_enque
    usbd_stm32f103.o(i.USB_LP_CAN1_RX0_IRQHandler) refers to main_bootloader.o(i.USBD_SignalHandler) for USBD_SignalHandler
    usbd_stm32f103.o(i.USB_LP_CAN1_RX0_IRQHandler) refers to usbd_stm32f103.o(.data) for .data
    usbd_stm32f103.o(i.stat_enque) refers to usbd_stm32f103.o(.bss) for .bss
    usbd_stm32f103.o(i.stat_enque) refers to usbd_stm32f103.o(.data) for .data
    cmsis_os2_port.o(i.osDelay) refers to systick_handler.o(i.sysTickWait) for sysTickWait
    cmsis_os2_port.o(i.osKernelInitialize) refers to systick_handler.o(i.sysTickInit) for sysTickInit
    cmsis_os2_port.o(i.osKernelStart) refers to systick_handler.o(i.sysTickStartMain) for sysTickStartMain
    cmsis_os2_port.o(i.osThreadFlagsSet) refers to systick_handler.o(i.sysTickEvtSet) for sysTickEvtSet
    cmsis_os2_port.o(i.osThreadFlagsWait) refers to systick_handler.o(i.sysTickEvtWaitOr) for sysTickEvtWaitOr
    cmsis_os2_port.o(i.osThreadNew) refers to systick_handler.o(i.sysTickRegMainFunc) for sysTickRegMainFunc
    cmsis_os2_port.o(i.osTimerNew) refers to systick_handler.o(i.sysTickRegCallback) for sysTickRegCallback
    cmsis_os2_port.o(i.osTimerStart) refers to systick_handler.o(i.sysTickFreqSet) for sysTickFreqSet
    systick_handler.o(i.SysTick_Handler) refers to systick_handler.o(.data) for .data
    systick_handler.o(i.sysTickEvtSet) refers to systick_handler.o(.data) for .data
    systick_handler.o(i.sysTickEvtWaitOr) refers to systick_handler.o(.data) for .data
    systick_handler.o(i.sysTickFreqSet) refers to systick_handler.o(.data) for .data
    systick_handler.o(i.sysTickInit) refers to systick_handler.o(.data) for .data
    systick_handler.o(i.sysTickRegCallback) refers to systick_handler.o(.data) for .data
    systick_handler.o(i.sysTickRegMainFunc) refers to systick_handler.o(.data) for .data
    systick_handler.o(i.sysTickStartMain) refers to systick_handler.o(.data) for .data
    systick_handler.o(i.sysTickTime) refers to systick_handler.o(.data) for .data
    systick_handler.o(i.sysTickWait) refers to systick_handler.o(.data) for .data
    settings.o(i.config_init) refers to rt_memclr.o(.text) for __aeabi_memclr
    settings.o(i.config_init) refers to rt_memcpy_v6.o(.text) for __aeabi_memcpy
    settings.o(i.config_init) refers to settings_rom_stub.o(i.config_rom_init) for config_rom_init
    settings.o(i.config_init) refers to settings.o(.bss) for .bss
    settings.o(i.config_init) refers to settings.o(cfgram) for cfgram
    settings.o(i.config_ram_add_hexdump) refers to settings.o(cfgram) for cfgram
    settings.o(i.config_ram_clear_assert) refers to rt_memclr.o(.text) for __aeabi_memclr
    settings.o(i.config_ram_clear_assert) refers to settings.o(cfgram) for cfgram
    settings.o(i.config_ram_get_assert) refers to strlen.o(.text) for strlen
    settings.o(i.config_ram_get_assert) refers to rt_memclr.o(.text) for __aeabi_memclr
    settings.o(i.config_ram_get_assert) refers to rt_memcpy_v6.o(.text) for __aeabi_memcpy
    settings.o(i.config_ram_get_assert) refers to settings.o(cfgram) for cfgram
    settings.o(i.config_ram_get_disable_msd) refers to settings.o(cfgram) for cfgram
    settings.o(i.config_ram_get_hexdumps) refers to settings.o(cfgram) for cfgram
    settings.o(i.config_ram_get_hold_in_bl) refers to settings.o(cfgram) for cfgram
    settings.o(i.config_ram_get_initial_hold_in_bl) refers to settings.o(.bss) for .bss
    settings.o(i.config_ram_get_page_erase) refers to settings.o(cfgram) for cfgram
    settings.o(i.config_ram_set_assert) refers to strlen.o(.text) for strlen
    settings.o(i.config_ram_set_assert) refers to rt_memclr.o(.text) for __aeabi_memclr
    settings.o(i.config_ram_set_assert) refers to rt_memcpy_v6.o(.text) for __aeabi_memcpy
    settings.o(i.config_ram_set_assert) refers to settings.o(cfgram) for cfgram
    settings.o(i.config_ram_set_disable_msd) refers to settings.o(cfgram) for cfgram
    settings.o(i.config_ram_set_hold_in_bl) refers to settings.o(cfgram) for cfgram
    settings.o(i.config_ram_set_page_erase) refers to settings.o(cfgram) for cfgram
    target_board.o(i.flash_algo_valid) refers to stm32f103xb_bl.o(.constdata) for g_board_info
    target_board.o(i.get_board_id) refers to stm32f103xb_bl.o(.constdata) for g_board_info
    target_board.o(i.get_family_id) refers to stm32f103xb_bl.o(.constdata) for g_board_info
    usbd_core.o(i.USBD_DataInStage) refers to usbd_stm32f103.o(i.USBD_WriteEP) for USBD_WriteEP
    usbd_core.o(i.USBD_DataInStage) refers to usbd_core.o(.data) for .data
    usbd_core.o(i.USBD_DataInStage) refers to usb_config.o(.constdata) for usbd_max_packet0
    usbd_core.o(i.USBD_DataOutStage) refers to usbd_stm32f103.o(i.USBD_ReadEP) for USBD_ReadEP
    usbd_core.o(i.USBD_DataOutStage) refers to usbd_core.o(.data) for .data
    usbd_core.o(i.USBD_EndPoint0) refers to usbd_core.o(i.USBD_SetupStage) for USBD_SetupStage
    usbd_core.o(i.USBD_EndPoint0) refers to usbd_stm32f103.o(i.USBD_DirCtrlEP) for USBD_DirCtrlEP
    usbd_core.o(i.USBD_EndPoint0) refers to usbd_core.o(i.USBD_ReqGetStatus) for USBD_ReqGetStatus
    usbd_core.o(i.USBD_EndPoint0) refers to usbd_core.o(i.USBD_DataInStage) for USBD_DataInStage
    usbd_core.o(i.USBD_EndPoint0) refers to usbd_core.o(i.USBD_StatusInStage) for USBD_StatusInStage
    usbd_core.o(i.USBD_EndPoint0) refers to usbd_core.o(i.USBD_ReqSetClrFeature) for USBD_ReqSetClrFeature
    usbd_core.o(i.USBD_EndPoint0) refers to usbd_stm32f103.o(i.USBD_SetAddress) for USBD_SetAddress
    usbd_core.o(i.USBD_EndPoint0) refers to usbd_core.o(i.USBD_ReqGetDescriptor) for USBD_ReqGetDescriptor
    usbd_core.o(i.USBD_EndPoint0) refers to usbd_core.o(i.USBD_ReqSetConfiguration) for USBD_ReqSetConfiguration
    usbd_core.o(i.USBD_EndPoint0) refers to usbd_core.o(i.USBD_ReqSetInterface) for USBD_ReqSetInterface
    usbd_core.o(i.USBD_EndPoint0) refers to usb_config.o(i.USBD_EndPoint0_Setup_HID_ReqToIF) for USBD_EndPoint0_Setup_HID_ReqToIF
    usbd_core.o(i.USBD_EndPoint0) refers to usbd_core_msc.o(i.USBD_EndPoint0_Setup_MSC_ReqToIF) for USBD_EndPoint0_Setup_MSC_ReqToIF
    usbd_core.o(i.USBD_EndPoint0) refers to usb_config.o(i.USBD_EndPoint0_Setup_CDC_ReqToIF) for USBD_EndPoint0_Setup_CDC_ReqToIF
    usbd_core.o(i.USBD_EndPoint0) refers to usb_config.o(i.USBD_EndPoint0_Setup_WebUSB_ReqToDevice) for USBD_EndPoint0_Setup_WebUSB_ReqToDevice
    usbd_core.o(i.USBD_EndPoint0) refers to usb_config.o(i.USBD_EndPoint0_Setup_WinUSB_ReqToDevice) for USBD_EndPoint0_Setup_WinUSB_ReqToDevice
    usbd_core.o(i.USBD_EndPoint0) refers to usbd_stm32f103.o(i.USBD_SetStallEP) for USBD_SetStallEP
    usbd_core.o(i.USBD_EndPoint0) refers to usbd_core.o(i.USBD_DataOutStage) for USBD_DataOutStage
    usbd_core.o(i.USBD_EndPoint0) refers to usb_config.o(i.USBD_EndPoint0_Out_HID_ReqToIF) for USBD_EndPoint0_Out_HID_ReqToIF
    usbd_core.o(i.USBD_EndPoint0) refers to usb_config.o(i.USBD_EndPoint0_Out_CDC_ReqToIF) for USBD_EndPoint0_Out_CDC_ReqToIF
    usbd_core.o(i.USBD_EndPoint0) refers to usbd_core.o(i.USBD_StatusOutStage) for USBD_StatusOutStage
    usbd_core.o(i.USBD_EndPoint0) refers to usbd_stm32f103.o(i.USBD_ClrStallEP) for USBD_ClrStallEP
    usbd_core.o(i.USBD_EndPoint0) refers to usbd_core.o(.data) for .data
    usbd_core.o(i.USBD_EndPoint0) refers to usb_config.o(.constdata) for USBD_P_Feature_Event
    usbd_core.o(i.USBD_EndPoint0) refers to usb_config.o(.constdata) for USBD_P_Configure_Event
    usbd_core.o(i.USBD_EndPoint0) refers to usb_config.o(.data) for USBD_AltSetting
    usbd_core.o(i.USBD_EndPoint0) refers to usb_config.o(.constdata) for USBD_P_Interface_Event
    usbd_core.o(i.USBD_ReqGetDescriptor) refers to info.o(i.info_get_unique_id_string_descriptor) for info_get_unique_id_string_descriptor
    usbd_core.o(i.USBD_ReqGetDescriptor) refers to usb_config.o(i.USBD_ReqGetDescriptor_HID) for USBD_ReqGetDescriptor_HID
    usbd_core.o(i.USBD_ReqGetDescriptor) refers to usbd_core.o(.data) for .data
    usbd_core.o(i.USBD_ReqGetDescriptor) refers to usb_config.o(.constdata) for usbd_hs_enable
    usbd_core.o(i.USBD_ReqGetDescriptor) refers to usb_config.o(.bss) for USBD_ConfigDescriptor
    usbd_core.o(i.USBD_ReqGetDescriptor) refers to usb_config.o(.data) for USBD_ConfigDescriptor_HS
    usbd_core.o(i.USBD_ReqGetDescriptor) refers to usb_config.o(.constdata) for USBD_DeviceDescriptor
    usbd_core.o(i.USBD_ReqGetDescriptor) refers to usb_config.o(.constdata) for USBD_DeviceQualifier_HS
    usbd_core.o(i.USBD_ReqGetDescriptor) refers to usb_config.o(.constdata) for USBD_DeviceQualifier
    usbd_core.o(i.USBD_ReqGetDescriptor) refers to usb_config.o(.constdata) for USBD_StringDescriptor
    usbd_core.o(i.USBD_ReqGetDescriptor) refers to usb_config.o(.constdata) for usbd_bos_enable
    usbd_core.o(i.USBD_ReqGetDescriptor) refers to usb_config.o(.constdata) for USBD_BinaryObjectStoreDescriptor
    usbd_core.o(i.USBD_ReqGetDescriptor) refers to usb_config.o(.constdata) for usbd_max_packet0
    usbd_core.o(i.USBD_ReqGetStatus) refers to usbd_core.o(.data) for .data
    usbd_core.o(i.USBD_ReqGetStatus) refers to usb_config.o(.bss) for USBD_EP0Buf
    usbd_core.o(i.USBD_ReqSetClrFeature) refers to usbd_stm32f103.o(i.USBD_WakeUpCfg) for USBD_WakeUpCfg
    usbd_core.o(i.USBD_ReqSetClrFeature) refers to usbd_stm32f103.o(i.USBD_SetStallEP) for USBD_SetStallEP
    usbd_core.o(i.USBD_ReqSetClrFeature) refers to usbd_stm32f103.o(i.USBD_ClrStallEP) for USBD_ClrStallEP
    usbd_core.o(i.USBD_ReqSetClrFeature) refers to usbd_core_msc.o(i.USBD_ReqClrFeature_MSC) for USBD_ReqClrFeature_MSC
    usbd_core.o(i.USBD_ReqSetClrFeature) refers to usbd_core.o(.data) for .data
    usbd_core.o(i.USBD_ReqSetConfiguration) refers to usbd_stm32f103.o(i.USBD_DisableEP) for USBD_DisableEP
    usbd_core.o(i.USBD_ReqSetConfiguration) refers to usbd_stm32f103.o(i.USBD_Configure) for USBD_Configure
    usbd_core.o(i.USBD_ReqSetConfiguration) refers to usbd_stm32f103.o(i.USBD_ConfigEP) for USBD_ConfigEP
    usbd_core.o(i.USBD_ReqSetConfiguration) refers to usbd_stm32f103.o(i.USBD_EnableEP) for USBD_EnableEP
    usbd_core.o(i.USBD_ReqSetConfiguration) refers to usbd_stm32f103.o(i.USBD_ResetEP) for USBD_ResetEP
    usbd_core.o(i.USBD_ReqSetConfiguration) refers to usbd_core.o(.data) for .data
    usbd_core.o(i.USBD_ReqSetConfiguration) refers to usb_config.o(.constdata) for usbd_hs_enable
    usbd_core.o(i.USBD_ReqSetConfiguration) refers to usb_config.o(.data) for USBD_ConfigDescriptor_HS
    usbd_core.o(i.USBD_ReqSetConfiguration) refers to usb_config.o(.bss) for USBD_ConfigDescriptor
    usbd_core.o(i.USBD_ReqSetConfiguration) refers to usb_config.o(.data) for USBD_AltSetting
    usbd_core.o(i.USBD_ReqSetConfiguration) refers to usb_config.o(.data) for usbd_if_num
    usbd_core.o(i.USBD_ReqSetInterface) refers to usbd_stm32f103.o(i.USBD_ConfigEP) for USBD_ConfigEP
    usbd_core.o(i.USBD_ReqSetInterface) refers to usbd_stm32f103.o(i.USBD_EnableEP) for USBD_EnableEP
    usbd_core.o(i.USBD_ReqSetInterface) refers to usbd_stm32f103.o(i.USBD_ResetEP) for USBD_ResetEP
    usbd_core.o(i.USBD_ReqSetInterface) refers to usbd_stm32f103.o(i.USBD_DisableEP) for USBD_DisableEP
    usbd_core.o(i.USBD_ReqSetInterface) refers to usbd_core.o(.data) for .data
    usbd_core.o(i.USBD_ReqSetInterface) refers to usb_config.o(.constdata) for usbd_hs_enable
    usbd_core.o(i.USBD_ReqSetInterface) refers to usb_config.o(.data) for USBD_ConfigDescriptor_HS
    usbd_core.o(i.USBD_ReqSetInterface) refers to usb_config.o(.bss) for USBD_ConfigDescriptor
    usbd_core.o(i.USBD_ReqSetInterface) refers to usb_config.o(.data) for USBD_AltSetting
    usbd_core.o(i.USBD_SetupStage) refers to usbd_stm32f103.o(i.USBD_ReadEP) for USBD_ReadEP
    usbd_core.o(i.USBD_SetupStage) refers to usbd_core.o(.data) for .data
    usbd_core.o(i.USBD_StatusInStage) refers to usbd_stm32f103.o(i.USBD_WriteEP) for USBD_WriteEP
    usbd_core.o(i.USBD_StatusOutStage) refers to usbd_stm32f103.o(i.USBD_ReadEP) for USBD_ReadEP
    usbd_core.o(i.USBD_StatusOutStage) refers to usb_config.o(.constdata) for usbd_max_packet0
    usbd_core.o(i.USBD_StatusOutStage) refers to usb_config.o(.bss) for USBD_EP0Buf
    usbd_core.o(i.usbd_configured) refers to usbd_core.o(.data) for .data
    usbd_core.o(i.usbd_connect) refers to usbd_stm32f103.o(i.USBD_Connect) for USBD_Connect
    usbd_core.o(i.usbd_init) refers to usb_config.o(i.usbd_class_init) for usbd_class_init
    usbd_core.o(i.usbd_init) refers to usb_config.o(i.USBD_RTX_TaskInit) for USBD_RTX_TaskInit
    usbd_core.o(i.usbd_init) refers to usbd_stm32f103.o(i.USBD_Init) for USBD_Init
    usbd_core.o(i.usbd_init) refers to usbd_core.o(.data) for .data
    usbd_core.o(i.usbd_reset_core) refers to usb_config.o(.constdata) for usbd_power
    usbd_core.o(i.usbd_reset_core) refers to usbd_core.o(.data) for .data
    usbd_core_msc.o(i.USBD_EndPoint0_Setup_MSC_ReqToIF) refers to usbd_msc.o(i.USBD_MSC_Reset) for USBD_MSC_Reset
    usbd_core_msc.o(i.USBD_EndPoint0_Setup_MSC_ReqToIF) refers to usbd_core.o(i.USBD_StatusInStage) for USBD_StatusInStage
    usbd_core_msc.o(i.USBD_EndPoint0_Setup_MSC_ReqToIF) refers to usbd_msc.o(i.USBD_MSC_GetMaxLUN) for USBD_MSC_GetMaxLUN
    usbd_core_msc.o(i.USBD_EndPoint0_Setup_MSC_ReqToIF) refers to usbd_core.o(i.USBD_DataInStage) for USBD_DataInStage
    usbd_core_msc.o(i.USBD_EndPoint0_Setup_MSC_ReqToIF) refers to usbd_core.o(.data) for USBD_SetupPacket
    usbd_core_msc.o(i.USBD_EndPoint0_Setup_MSC_ReqToIF) refers to usb_config.o(.data) for usbd_msc_if_num
    usbd_core_msc.o(i.USBD_EndPoint0_Setup_MSC_ReqToIF) refers to usb_config.o(.bss) for USBD_EP0Buf
    usbd_core_msc.o(i.USBD_ReqClrFeature_MSC) refers to usbd_msc.o(i.USBD_MSC_ClrStallEP) for USBD_MSC_ClrStallEP
    usbd_msc.o(i.USBD_MSC_ATAPassThrough) refers to usbd_msc.o(i.USBD_MSC_DataInFormat) for USBD_MSC_DataInFormat
    usbd_msc.o(i.USBD_MSC_ATAPassThrough) refers to usbd_stm32f103.o(i.USBD_WriteEP) for USBD_WriteEP
    usbd_msc.o(i.USBD_MSC_ATAPassThrough) refers to usb_config.o(.bss) for USBD_MSC_BulkBuf
    usbd_msc.o(i.USBD_MSC_ATAPassThrough) refers to usbd_msc.o(.data) for .data
    usbd_msc.o(i.USBD_MSC_ATAPassThrough) refers to usbd_msc.o(.bss) for .bss
    usbd_msc.o(i.USBD_MSC_ATAPassThrough) refers to usb_config.o(.constdata) for usbd_msc_ep_bulkin
    usbd_msc.o(i.USBD_MSC_BulkIn) refers to usbd_msc.o(i.USBD_MSC_MemoryRead) for USBD_MSC_MemoryRead
    usbd_msc.o(i.USBD_MSC_BulkIn) refers to usbd_msc.o(i.USBD_MSC_SetCSW) for USBD_MSC_SetCSW
    usbd_msc.o(i.USBD_MSC_BulkIn) refers to usbd_msc.o(i.USBD_MSC_SetStallEP) for USBD_MSC_SetStallEP
    usbd_msc.o(i.USBD_MSC_BulkIn) refers to usbd_msc.o(.data) for .data
    usbd_msc.o(i.USBD_MSC_BulkIn) refers to usbd_msc.o(.bss) for .bss
    usbd_msc.o(i.USBD_MSC_BulkIn) refers to usb_config.o(.constdata) for usbd_msc_ep_bulkin
    usbd_msc.o(i.USBD_MSC_BulkOut) refers to usbd_msc.o(i.USBD_MSC_SetStallEP) for USBD_MSC_SetStallEP
    usbd_msc.o(i.USBD_MSC_BulkOut) refers to usbd_msc.o(i.USBD_MSC_SetCSW) for USBD_MSC_SetCSW
    usbd_msc.o(i.USBD_MSC_BulkOut) refers to usbd_msc.o(i.USBD_MSC_MemoryWrite) for USBD_MSC_MemoryWrite
    usbd_msc.o(i.USBD_MSC_BulkOut) refers to usbd_msc.o(i.USBD_MSC_MemoryVerify) for USBD_MSC_MemoryVerify
    usbd_msc.o(i.USBD_MSC_BulkOut) refers to util.o(i._util_assert) for _util_assert
    usbd_msc.o(i.USBD_MSC_BulkOut) refers to usbd_msc.o(i.USBD_MSC_GetCBW) for USBD_MSC_GetCBW
    usbd_msc.o(i.USBD_MSC_BulkOut) refers to usbd_msc.o(.data) for .data
    usbd_msc.o(i.USBD_MSC_BulkOut) refers to usb_config.o(.constdata) for usbd_msc_ep_bulkout
    usbd_msc.o(i.USBD_MSC_BulkOut) refers to usbd_msc.o(.bss) for .bss
    usbd_msc.o(i.USBD_MSC_BulkOut) refers to usbd_core.o(.data) for USBD_EndPointHalt
    usbd_msc.o(i.USBD_MSC_CheckMedia) refers to usbd_msc.o(i.USBD_MSC_SetStallEP) for USBD_MSC_SetStallEP
    usbd_msc.o(i.USBD_MSC_CheckMedia) refers to usbd_msc.o(i.USBD_MSC_SetCSW) for USBD_MSC_SetCSW
    usbd_msc.o(i.USBD_MSC_CheckMedia) refers to usbd_msc.o(.data) for .data
    usbd_msc.o(i.USBD_MSC_CheckMedia) refers to usbd_msc.o(.bss) for .bss
    usbd_msc.o(i.USBD_MSC_CheckMedia) refers to usb_config.o(.constdata) for usbd_msc_ep_bulkin
    usbd_msc.o(i.USBD_MSC_CheckMedia) refers to usb_config.o(.constdata) for usbd_msc_ep_bulkout
    usbd_msc.o(i.USBD_MSC_ClrStallEP) refers to usbd_stm32f103.o(i.USBD_WriteEP) for USBD_WriteEP
    usbd_msc.o(i.USBD_MSC_ClrStallEP) refers to usbd_core.o(.data) for USBD_SetupPacket
    usbd_msc.o(i.USBD_MSC_ClrStallEP) refers to usb_config.o(.constdata) for usbd_msc_ep_bulkin
    usbd_msc.o(i.USBD_MSC_ClrStallEP) refers to usbd_msc.o(.bss) for .bss
    usbd_msc.o(i.USBD_MSC_DataInFormat) refers to usbd_msc.o(i.USBD_MSC_SetStallEP) for USBD_MSC_SetStallEP
    usbd_msc.o(i.USBD_MSC_DataInFormat) refers to usbd_msc.o(i.USBD_MSC_SetCSW) for USBD_MSC_SetCSW
    usbd_msc.o(i.USBD_MSC_DataInFormat) refers to usbd_msc.o(.bss) for .bss
    usbd_msc.o(i.USBD_MSC_DataInFormat) refers to usb_config.o(.constdata) for usbd_msc_ep_bulkout
    usbd_msc.o(i.USBD_MSC_DataInTransfer) refers to usbd_stm32f103.o(i.USBD_WriteEP) for USBD_WriteEP
    usbd_msc.o(i.USBD_MSC_DataInTransfer) refers to usbd_msc.o(.bss) for .bss
    usbd_msc.o(i.USBD_MSC_DataInTransfer) refers to usbd_msc.o(.data) for .data
    usbd_msc.o(i.USBD_MSC_DataInTransfer) refers to usb_config.o(.constdata) for usbd_msc_ep_bulkin
    usbd_msc.o(i.USBD_MSC_DataInTransfer) refers to usb_config.o(.bss) for USBD_MSC_BulkBuf
    usbd_msc.o(i.USBD_MSC_EP_BULKIN_Event) refers to usbd_msc.o(i.USBD_MSC_BulkIn) for USBD_MSC_BulkIn
    usbd_msc.o(i.USBD_MSC_EP_BULKOUT_Event) refers to usbd_stm32f103.o(i.USBD_ReadEP) for USBD_ReadEP
    usbd_msc.o(i.USBD_MSC_EP_BULKOUT_Event) refers to usbd_msc.o(i.USBD_MSC_BulkOut) for USBD_MSC_BulkOut
    usbd_msc.o(i.USBD_MSC_EP_BULKOUT_Event) refers to usb_config.o(.constdata) for USBD_MSC_BulkBufSize
    usbd_msc.o(i.USBD_MSC_EP_BULKOUT_Event) refers to usb_config.o(.bss) for USBD_MSC_BulkBuf
    usbd_msc.o(i.USBD_MSC_EP_BULKOUT_Event) refers to usb_config.o(.constdata) for usbd_msc_ep_bulkout
    usbd_msc.o(i.USBD_MSC_EP_BULKOUT_Event) refers to usbd_msc.o(.data) for .data
    usbd_msc.o(i.USBD_MSC_EP_BULK_Event) refers to usbd_msc.o(i.USBD_MSC_EP_BULKOUT_Event) for USBD_MSC_EP_BULKOUT_Event
    usbd_msc.o(i.USBD_MSC_EP_BULK_Event) refers to usbd_msc.o(i.USBD_MSC_BulkIn) for USBD_MSC_BulkIn
    usbd_msc.o(i.USBD_MSC_GetCBW) refers to usbd_msc.o(i.USBD_MSC_RequestSense) for USBD_MSC_RequestSense
    usbd_msc.o(i.USBD_MSC_GetCBW) refers to usbd_msc.o(i.USBD_MSC_Inquiry) for USBD_MSC_Inquiry
    usbd_msc.o(i.USBD_MSC_GetCBW) refers to usbd_msc.o(i.USBD_MSC_MediaRemoval) for USBD_MSC_MediaRemoval
    usbd_msc.o(i.USBD_MSC_GetCBW) refers to usbd_msc.o(i.USBD_MSC_SynchronizeCache) for USBD_MSC_SynchronizeCache
    usbd_msc.o(i.USBD_MSC_GetCBW) refers to usbd_msc.o(i.USBD_MSC_RWSetup) for USBD_MSC_RWSetup
    usbd_msc.o(i.USBD_MSC_GetCBW) refers to usbd_msc.o(i.USBD_MSC_TestUnitReady) for USBD_MSC_TestUnitReady
    usbd_msc.o(i.USBD_MSC_GetCBW) refers to usbd_msc.o(i.USBD_MSC_StartStopUnit) for USBD_MSC_StartStopUnit
    usbd_msc.o(i.USBD_MSC_GetCBW) refers to usbd_msc.o(i.USBD_MSC_ModeSense6) for USBD_MSC_ModeSense6
    usbd_msc.o(i.USBD_MSC_GetCBW) refers to usbd_msc.o(i.USBD_MSC_ModeSense10) for USBD_MSC_ModeSense10
    usbd_msc.o(i.USBD_MSC_GetCBW) refers to usbd_msc.o(i.USBD_MSC_ReadFormatCapacity) for USBD_MSC_ReadFormatCapacity
    usbd_msc.o(i.USBD_MSC_GetCBW) refers to usbd_msc.o(i.USBD_MSC_ReadCapacity) for USBD_MSC_ReadCapacity
    usbd_msc.o(i.USBD_MSC_GetCBW) refers to usbd_msc.o(i.USBD_MSC_ATAPassThrough) for USBD_MSC_ATAPassThrough
    usbd_msc.o(i.USBD_MSC_GetCBW) refers to usbd_msc.o(i.USBD_MSC_ServiceActionIn16) for USBD_MSC_ServiceActionIn16
    usbd_msc.o(i.USBD_MSC_GetCBW) refers to usbd_msc.o(i.USBD_MSC_MemoryRead) for USBD_MSC_MemoryRead
    usbd_msc.o(i.USBD_MSC_GetCBW) refers to usbd_msc.o(i.USBD_MSC_SetStallEP) for USBD_MSC_SetStallEP
    usbd_msc.o(i.USBD_MSC_GetCBW) refers to usbd_msc.o(i.USBD_MSC_SetCSW) for USBD_MSC_SetCSW
    usbd_msc.o(i.USBD_MSC_GetCBW) refers to usbd_msc.o(.data) for .data
    usbd_msc.o(i.USBD_MSC_GetCBW) refers to usbd_msc.o(.bss) for .bss
    usbd_msc.o(i.USBD_MSC_GetCBW) refers to usb_config.o(.bss) for USBD_MSC_BulkBuf
    usbd_msc.o(i.USBD_MSC_GetCBW) refers to usb_config.o(.constdata) for usbd_msc_ep_bulkout
    usbd_msc.o(i.USBD_MSC_GetCBW) refers to usb_config.o(.constdata) for usbd_msc_ep_bulkin
    usbd_msc.o(i.USBD_MSC_GetCBW) refers to usbd_core.o(.data) for USBD_EndPointStall
    usbd_msc.o(i.USBD_MSC_GetMaxLUN) refers to usb_config.o(.bss) for USBD_EP0Buf
    usbd_msc.o(i.USBD_MSC_Inquiry) refers to usbd_msc.o(i.USBD_MSC_DataInFormat) for USBD_MSC_DataInFormat
    usbd_msc.o(i.USBD_MSC_Inquiry) refers to usbd_msc.o(i.USBD_MSC_DataInTransfer) for USBD_MSC_DataInTransfer
    usbd_msc.o(i.USBD_MSC_Inquiry) refers to usb_config.o(.bss) for USBD_MSC_BulkBuf
    usbd_msc.o(i.USBD_MSC_Inquiry) refers to usb_config.o(.data) for usbd_msc_inquiry_data
    usbd_msc.o(i.USBD_MSC_Inquiry) refers to usbd_msc.o(.data) for .data
    usbd_msc.o(i.USBD_MSC_MediaRemoval) refers to usbd_msc.o(i.USBD_MSC_SetCSW) for USBD_MSC_SetCSW
    usbd_msc.o(i.USBD_MSC_MediaRemoval) refers to usbd_msc.o(.bss) for .bss
    usbd_msc.o(i.USBD_MSC_MemoryRead) refers to usbd_msc.o(i.USBD_MSC_SetStallEP) for USBD_MSC_SetStallEP
    usbd_msc.o(i.USBD_MSC_MemoryRead) refers to usbd_msc.o(i.USBD_MSC_SetCSW) for USBD_MSC_SetCSW
    usbd_msc.o(i.USBD_MSC_MemoryRead) refers to usbd_msc.o(i.USBD_MSC_CheckMedia) for USBD_MSC_CheckMedia
    usbd_msc.o(i.USBD_MSC_MemoryRead) refers to usbd_stm32f103.o(i.USBD_WriteEP) for USBD_WriteEP
    usbd_msc.o(i.USBD_MSC_MemoryRead) refers to vfs_manager.o(i.usbd_msc_read_sect) for usbd_msc_read_sect
    usbd_msc.o(i.USBD_MSC_MemoryRead) refers to usbd_msc.o(.data) for .data
    usbd_msc.o(i.USBD_MSC_MemoryRead) refers to usb_config.o(.constdata) for usbd_msc_ep_bulkin
    usbd_msc.o(i.USBD_MSC_MemoryRead) refers to usbd_msc.o(.bss) for .bss
    usbd_msc.o(i.USBD_MSC_MemoryRead) refers to usb_config.o(.constdata) for usbd_msc_maxpacketsize
    usbd_msc.o(i.USBD_MSC_MemoryRead) refers to usbd_core.o(.data) for USBD_HighSpeed
    usbd_msc.o(i.USBD_MSC_MemoryVerify) refers to usbd_msc.o(i.USBD_MSC_SetStallEP) for USBD_MSC_SetStallEP
    usbd_msc.o(i.USBD_MSC_MemoryVerify) refers to usbd_msc.o(i.USBD_MSC_SetCSW) for USBD_MSC_SetCSW
    usbd_msc.o(i.USBD_MSC_MemoryVerify) refers to usbd_msc.o(i.USBD_MSC_CheckMedia) for USBD_MSC_CheckMedia
    usbd_msc.o(i.USBD_MSC_MemoryVerify) refers to vfs_manager.o(i.usbd_msc_read_sect) for usbd_msc_read_sect
    usbd_msc.o(i.USBD_MSC_MemoryVerify) refers to usbd_msc.o(.data) for .data
    usbd_msc.o(i.USBD_MSC_MemoryVerify) refers to usbd_msc.o(.bss) for .bss
    usbd_msc.o(i.USBD_MSC_MemoryVerify) refers to usb_config.o(.constdata) for usbd_msc_ep_bulkout
    usbd_msc.o(i.USBD_MSC_MemoryVerify) refers to usb_config.o(.bss) for USBD_MSC_BulkBuf
    usbd_msc.o(i.USBD_MSC_MemoryWrite) refers to usbd_msc.o(i.USBD_MSC_SetStallEP) for USBD_MSC_SetStallEP
    usbd_msc.o(i.USBD_MSC_MemoryWrite) refers to usbd_msc.o(i.USBD_MSC_SetCSW) for USBD_MSC_SetCSW
    usbd_msc.o(i.USBD_MSC_MemoryWrite) refers to usbd_msc.o(i.USBD_MSC_CheckMedia) for USBD_MSC_CheckMedia
    usbd_msc.o(i.USBD_MSC_MemoryWrite) refers to util.o(i._util_assert) for _util_assert
    usbd_msc.o(i.USBD_MSC_MemoryWrite) refers to vfs_manager.o(i.usbd_msc_write_sect) for usbd_msc_write_sect
    usbd_msc.o(i.USBD_MSC_MemoryWrite) refers to usbd_msc.o(.data) for .data
    usbd_msc.o(i.USBD_MSC_MemoryWrite) refers to usbd_msc.o(.bss) for .bss
    usbd_msc.o(i.USBD_MSC_MemoryWrite) refers to usb_config.o(.constdata) for usbd_msc_ep_bulkout
    usbd_msc.o(i.USBD_MSC_MemoryWrite) refers to usb_config.o(.bss) for USBD_MSC_BulkBuf
    usbd_msc.o(i.USBD_MSC_ModeSense10) refers to usbd_msc.o(i.USBD_MSC_DataInFormat) for USBD_MSC_DataInFormat
    usbd_msc.o(i.USBD_MSC_ModeSense10) refers to usbd_msc.o(i.USBD_MSC_CheckMedia) for USBD_MSC_CheckMedia
    usbd_msc.o(i.USBD_MSC_ModeSense10) refers to usbd_msc.o(i.USBD_MSC_DataInTransfer) for USBD_MSC_DataInTransfer
    usbd_msc.o(i.USBD_MSC_ModeSense10) refers to usb_config.o(.bss) for USBD_MSC_BulkBuf
    usbd_msc.o(i.USBD_MSC_ModeSense10) refers to usbd_msc.o(.data) for .data
    usbd_msc.o(i.USBD_MSC_ModeSense10) refers to usbd_msc.o(.bss) for .bss
    usbd_msc.o(i.USBD_MSC_ModeSense6) refers to usbd_msc.o(i.USBD_MSC_DataInFormat) for USBD_MSC_DataInFormat
    usbd_msc.o(i.USBD_MSC_ModeSense6) refers to usbd_msc.o(i.USBD_MSC_CheckMedia) for USBD_MSC_CheckMedia
    usbd_msc.o(i.USBD_MSC_ModeSense6) refers to usbd_msc.o(i.USBD_MSC_DataInTransfer) for USBD_MSC_DataInTransfer
    usbd_msc.o(i.USBD_MSC_ModeSense6) refers to usb_config.o(.bss) for USBD_MSC_BulkBuf
    usbd_msc.o(i.USBD_MSC_ModeSense6) refers to usbd_msc.o(.data) for .data
    usbd_msc.o(i.USBD_MSC_ModeSense6) refers to usbd_msc.o(.bss) for .bss
    usbd_msc.o(i.USBD_MSC_RWSetup) refers to usbd_msc.o(i.USBD_MSC_CheckMedia) for USBD_MSC_CheckMedia
    usbd_msc.o(i.USBD_MSC_RWSetup) refers to usbd_msc.o(i.USBD_MSC_SetStallEP) for USBD_MSC_SetStallEP
    usbd_msc.o(i.USBD_MSC_RWSetup) refers to usbd_msc.o(i.USBD_MSC_SetCSW) for USBD_MSC_SetCSW
    usbd_msc.o(i.USBD_MSC_RWSetup) refers to usbd_msc.o(.bss) for .bss
    usbd_msc.o(i.USBD_MSC_RWSetup) refers to usbd_msc.o(.data) for .data
    usbd_msc.o(i.USBD_MSC_RWSetup) refers to usb_config.o(.constdata) for usbd_msc_ep_bulkin
    usbd_msc.o(i.USBD_MSC_RWSetup) refers to usb_config.o(.constdata) for usbd_msc_ep_bulkout
    usbd_msc.o(i.USBD_MSC_ReadCapacity) refers to usbd_msc.o(i.USBD_MSC_DataInFormat) for USBD_MSC_DataInFormat
    usbd_msc.o(i.USBD_MSC_ReadCapacity) refers to usbd_msc.o(i.USBD_MSC_CheckMedia) for USBD_MSC_CheckMedia
    usbd_msc.o(i.USBD_MSC_ReadCapacity) refers to usbd_msc.o(i.USBD_MSC_DataInTransfer) for USBD_MSC_DataInTransfer
    usbd_msc.o(i.USBD_MSC_ReadCapacity) refers to usbd_msc.o(.data) for .data
    usbd_msc.o(i.USBD_MSC_ReadCapacity) refers to usb_config.o(.bss) for USBD_MSC_BulkBuf
    usbd_msc.o(i.USBD_MSC_ReadFormatCapacity) refers to usbd_msc.o(i.USBD_MSC_DataInFormat) for USBD_MSC_DataInFormat
    usbd_msc.o(i.USBD_MSC_ReadFormatCapacity) refers to usbd_msc.o(i.USBD_MSC_CheckMedia) for USBD_MSC_CheckMedia
    usbd_msc.o(i.USBD_MSC_ReadFormatCapacity) refers to usbd_msc.o(i.USBD_MSC_DataInTransfer) for USBD_MSC_DataInTransfer
    usbd_msc.o(i.USBD_MSC_ReadFormatCapacity) refers to usb_config.o(.bss) for USBD_MSC_BulkBuf
    usbd_msc.o(i.USBD_MSC_ReadFormatCapacity) refers to usbd_msc.o(.data) for .data
    usbd_msc.o(i.USBD_MSC_ReadFormatCapacity) refers to usbd_msc.o(.bss) for .bss
    usbd_msc.o(i.USBD_MSC_RequestSense) refers to usbd_msc.o(i.USBD_MSC_DataInFormat) for USBD_MSC_DataInFormat
    usbd_msc.o(i.USBD_MSC_RequestSense) refers to usbd_msc.o(i.USBD_MSC_DataInTransfer) for USBD_MSC_DataInTransfer
    usbd_msc.o(i.USBD_MSC_RequestSense) refers to usb_config.o(.bss) for USBD_MSC_BulkBuf
    usbd_msc.o(i.USBD_MSC_RequestSense) refers to usbd_msc.o(.data) for .data
    usbd_msc.o(i.USBD_MSC_RequestSense) refers to usbd_msc.o(.bss) for .bss
    usbd_msc.o(i.USBD_MSC_Reset) refers to usbd_core.o(.data) for USBD_EndPointStall
    usbd_msc.o(i.USBD_MSC_Reset) refers to usbd_msc.o(.bss) for .bss
    usbd_msc.o(i.USBD_MSC_Reset) refers to usbd_msc.o(.data) for .data
    usbd_msc.o(i.USBD_MSC_Reset_Event) refers to usbd_msc.o(i.USBD_MSC_Reset) for USBD_MSC_Reset
    usbd_msc.o(i.USBD_MSC_ServiceActionIn16) refers to usbd_msc.o(i.USBD_MSC_DataInFormat) for USBD_MSC_DataInFormat
    usbd_msc.o(i.USBD_MSC_ServiceActionIn16) refers to usbd_stm32f103.o(i.USBD_WriteEP) for USBD_WriteEP
    usbd_msc.o(i.USBD_MSC_ServiceActionIn16) refers to usb_config.o(.bss) for USBD_MSC_BulkBuf
    usbd_msc.o(i.USBD_MSC_ServiceActionIn16) refers to usbd_msc.o(.data) for .data
    usbd_msc.o(i.USBD_MSC_ServiceActionIn16) refers to usb_config.o(.constdata) for usbd_msc_ep_bulkin
    usbd_msc.o(i.USBD_MSC_ServiceActionIn16) refers to usbd_msc.o(.bss) for .bss
    usbd_msc.o(i.USBD_MSC_SetCSW) refers to usbd_stm32f103.o(i.USBD_WriteEP) for USBD_WriteEP
    usbd_msc.o(i.USBD_MSC_SetCSW) refers to usbd_msc.o(.bss) for .bss
    usbd_msc.o(i.USBD_MSC_SetCSW) refers to usb_config.o(.constdata) for usbd_msc_ep_bulkin
    usbd_msc.o(i.USBD_MSC_SetCSW) refers to usbd_msc.o(.data) for .data
    usbd_msc.o(i.USBD_MSC_SetStallEP) refers to usbd_stm32f103.o(i.USBD_SetStallEP) for USBD_SetStallEP
    usbd_msc.o(i.USBD_MSC_SetStallEP) refers to usbd_core.o(.data) for USBD_EndPointHalt
    usbd_msc.o(i.USBD_MSC_StartStopUnit) refers to usbd_msc.o(i.USBD_MSC_SetCSW) for USBD_MSC_SetCSW
    usbd_msc.o(i.USBD_MSC_StartStopUnit) refers to usbd_msc.o(i.usbd_msc_start_stop) for usbd_msc_start_stop
    usbd_msc.o(i.USBD_MSC_StartStopUnit) refers to usbd_msc.o(.bss) for .bss
    usbd_msc.o(i.USBD_MSC_StartStopUnit) refers to usbd_msc.o(.data) for .data
    usbd_msc.o(i.USBD_MSC_SynchronizeCache) refers to usbd_msc.o(i.USBD_MSC_SetCSW) for USBD_MSC_SetCSW
    usbd_msc.o(i.USBD_MSC_SynchronizeCache) refers to usbd_msc.o(.bss) for .bss
    usbd_msc.o(i.USBD_MSC_TestUnitReady) refers to usbd_msc.o(i.USBD_MSC_SetStallEP) for USBD_MSC_SetStallEP
    usbd_msc.o(i.USBD_MSC_TestUnitReady) refers to usbd_msc.o(i.USBD_MSC_CheckMedia) for USBD_MSC_CheckMedia
    usbd_msc.o(i.USBD_MSC_TestUnitReady) refers to usbd_msc.o(i.USBD_MSC_SetCSW) for USBD_MSC_SetCSW
    usbd_msc.o(i.USBD_MSC_TestUnitReady) refers to usbd_msc.o(.bss) for .bss
    usbd_msc.o(i.USBD_MSC_TestUnitReady) refers to usb_config.o(.constdata) for usbd_msc_ep_bulkin
    usbd_msc.o(i.USBD_MSC_TestUnitReady) refers to usb_config.o(.constdata) for usbd_msc_ep_bulkout
    rt_memcpy_v6.o(.text) refers to rt_memcpy_w.o(.text) for __aeabi_memcpy4
    rt_memmove_v6.o(.text) refers to rt_memcpy_v6.o(.text) for __aeabi_memcpy
    rt_memmove_v6.o(.text) refers to rt_memmove_w.o(.text) for __memmove_aligned
    aeabi_memset.o(.text) refers to rt_memclr.o(.text) for _memset
    rt_memclr.o(.text) refers to rt_memclr_w.o(.text) for _memset_w
    __main.o(!!!main) refers to __rtentry.o(.ARM.Collect$$rtentry$$00000000) for __rt_entry
    __rtentry.o(.ARM.Collect$$rtentry$$00000000) refers (Special) to __rtentry2.o(.ARM.Collect$$rtentry$$0000000A) for __rt_entry_li
    __rtentry.o(.ARM.Collect$$rtentry$$00000000) refers (Special) to __rtentry2.o(.ARM.Collect$$rtentry$$0000000D) for __rt_entry_main
    __rtentry.o(.ARM.Collect$$rtentry$$00000000) refers (Special) to __rtentry2.o(.ARM.Collect$$rtentry$$0000000C) for __rt_entry_postli_1
    __rtentry.o(.ARM.Collect$$rtentry$$00000000) refers (Special) to __rtentry2.o(.ARM.Collect$$rtentry$$00000009) for __rt_entry_postsh_1
    __rtentry.o(.ARM.Collect$$rtentry$$00000000) refers (Special) to __rtentry2.o(.ARM.Collect$$rtentry$$00000002) for __rt_entry_presh_1
    __rtentry.o(.ARM.Collect$$rtentry$$00000000) refers (Special) to __rtentry4.o(.ARM.Collect$$rtentry$$00000004) for __rt_entry_sh
    rt_memmove_w.o(.text) refers to rt_memcpy_w.o(.text) for __aeabi_memcpy4
    __rtentry2.o(.ARM.Collect$$rtentry$$00000008) refers to boardinit2.o(.text) for _platform_post_stackheap_init
    __rtentry2.o(.ARM.Collect$$rtentry$$0000000A) refers to libinit.o(.ARM.Collect$$libinit$$00000000) for __rt_lib_init
    __rtentry2.o(.ARM.Collect$$rtentry$$0000000B) refers to boardinit3.o(.text) for _platform_post_lib_init
    __rtentry2.o(.ARM.Collect$$rtentry$$0000000D) refers to main_bootloader.o(i.main) for main
    __rtentry2.o(.ARM.Collect$$rtentry$$0000000D) refers to exit.o(.text) for exit
    __rtentry2.o(.ARM.exidx) refers to __rtentry2.o(.ARM.Collect$$rtentry$$00000001) for .ARM.Collect$$rtentry$$00000001
    __rtentry2.o(.ARM.exidx) refers to __rtentry2.o(.ARM.Collect$$rtentry$$00000008) for .ARM.Collect$$rtentry$$00000008
    __rtentry2.o(.ARM.exidx) refers to __rtentry2.o(.ARM.Collect$$rtentry$$0000000A) for .ARM.Collect$$rtentry$$0000000A
    __rtentry2.o(.ARM.exidx) refers to __rtentry2.o(.ARM.Collect$$rtentry$$0000000B) for .ARM.Collect$$rtentry$$0000000B
    __rtentry2.o(.ARM.exidx) refers to __rtentry2.o(.ARM.Collect$$rtentry$$0000000D) for .ARM.Collect$$rtentry$$0000000D
    __rtentry4.o(.ARM.Collect$$rtentry$$00000004) refers to sys_stackheap_outer.o(.text) for __user_setup_stackheap
    __rtentry4.o(.ARM.exidx) refers to __rtentry4.o(.ARM.Collect$$rtentry$$00000004) for .ARM.Collect$$rtentry$$00000004
    sys_stackheap_outer.o(.text) refers to libspace.o(.text) for __user_perproc_libspace
    sys_stackheap_outer.o(.text) refers to startup_stm32f103xb.o(.text) for __user_initial_stackheap
    exit.o(.text) refers to rtexit.o(.ARM.Collect$$rtexit$$00000000) for __rt_exit
    libinit.o(.ARM.Collect$$libinit$$00000000) refers (Special) to libinit2.o(.ARM.Collect$$libinit$$0000002E) for __rt_lib_init_alloca_1
    libinit.o(.ARM.Collect$$libinit$$00000000) refers (Special) to libinit2.o(.ARM.Collect$$libinit$$0000002C) for __rt_lib_init_argv_1
    libinit.o(.ARM.Collect$$libinit$$00000000) refers (Special) to libinit2.o(.ARM.Collect$$libinit$$0000001B) for __rt_lib_init_atexit_1
    libinit.o(.ARM.Collect$$libinit$$00000000) refers (Special) to libinit2.o(.ARM.Collect$$libinit$$00000021) for __rt_lib_init_clock_1
    libinit.o(.ARM.Collect$$libinit$$00000000) refers (Special) to libinit2.o(.ARM.Collect$$libinit$$00000032) for __rt_lib_init_cpp_1
    libinit.o(.ARM.Collect$$libinit$$00000000) refers (Special) to libinit2.o(.ARM.Collect$$libinit$$00000030) for __rt_lib_init_exceptions_1
    libinit.o(.ARM.Collect$$libinit$$00000000) refers (Special) to libinit2.o(.ARM.Collect$$libinit$$00000002) for __rt_lib_init_fp_1
    libinit.o(.ARM.Collect$$libinit$$00000000) refers (Special) to libinit2.o(.ARM.Collect$$libinit$$0000001F) for __rt_lib_init_fp_trap_1
    libinit.o(.ARM.Collect$$libinit$$00000000) refers (Special) to libinit2.o(.ARM.Collect$$libinit$$00000023) for __rt_lib_init_getenv_1
    libinit.o(.ARM.Collect$$libinit$$00000000) refers (Special) to libinit2.o(.ARM.Collect$$libinit$$0000000A) for __rt_lib_init_heap_1
    libinit.o(.ARM.Collect$$libinit$$00000000) refers (Special) to libinit2.o(.ARM.Collect$$libinit$$00000011) for __rt_lib_init_lc_collate_1
    libinit.o(.ARM.Collect$$libinit$$00000000) refers (Special) to libinit2.o(.ARM.Collect$$libinit$$00000013) for __rt_lib_init_lc_ctype_1
    libinit.o(.ARM.Collect$$libinit$$00000000) refers (Special) to libinit2.o(.ARM.Collect$$libinit$$00000015) for __rt_lib_init_lc_monetary_1
    libinit.o(.ARM.Collect$$libinit$$00000000) refers (Special) to libinit2.o(.ARM.Collect$$libinit$$00000017) for __rt_lib_init_lc_numeric_1
    libinit.o(.ARM.Collect$$libinit$$00000000) refers (Special) to libinit2.o(.ARM.Collect$$libinit$$00000019) for __rt_lib_init_lc_time_1
    libinit.o(.ARM.Collect$$libinit$$00000000) refers (Special) to libinit2.o(.ARM.Collect$$libinit$$00000004) for __rt_lib_init_preinit_1
    libinit.o(.ARM.Collect$$libinit$$00000000) refers (Special) to libinit2.o(.ARM.Collect$$libinit$$0000000E) for __rt_lib_init_rand_1
    libinit.o(.ARM.Collect$$libinit$$00000000) refers (Special) to libinit2.o(.ARM.Collect$$libinit$$00000033) for __rt_lib_init_return
    libinit.o(.ARM.Collect$$libinit$$00000000) refers (Special) to libinit2.o(.ARM.Collect$$libinit$$0000001D) for __rt_lib_init_signal_1
    libinit.o(.ARM.Collect$$libinit$$00000000) refers (Special) to libinit2.o(.ARM.Collect$$libinit$$00000025) for __rt_lib_init_stdio_1
    libinit.o(.ARM.Collect$$libinit$$00000000) refers (Special) to libinit2.o(.ARM.Collect$$libinit$$0000000C) for __rt_lib_init_user_alloc_1
    libspace.o(.text) refers to libspace.o(.bss) for __libspace_start
    rtexit.o(.ARM.Collect$$rtexit$$00000000) refers (Special) to rtexit2.o(.ARM.Collect$$rtexit$$00000004) for __rt_exit_exit
    rtexit.o(.ARM.Collect$$rtexit$$00000000) refers (Special) to rtexit2.o(.ARM.Collect$$rtexit$$00000003) for __rt_exit_ls
    rtexit.o(.ARM.Collect$$rtexit$$00000000) refers (Special) to rtexit2.o(.ARM.Collect$$rtexit$$00000002) for __rt_exit_prels_1
    rtexit.o(.ARM.exidx) refers (Special) to rtexit2.o(.ARM.Collect$$rtexit$$00000004) for __rt_exit_exit
    rtexit.o(.ARM.exidx) refers (Special) to rtexit2.o(.ARM.Collect$$rtexit$$00000003) for __rt_exit_ls
    rtexit.o(.ARM.exidx) refers (Special) to rtexit2.o(.ARM.Collect$$rtexit$$00000002) for __rt_exit_prels_1
    rtexit.o(.ARM.exidx) refers to rtexit.o(.ARM.Collect$$rtexit$$00000000) for .ARM.Collect$$rtexit$$00000000
    libinit2.o(.ARM.Collect$$libinit$$00000010) refers to libinit2.o(.ARM.Collect$$libinit$$0000000F) for .ARM.Collect$$libinit$$0000000F
    libinit2.o(.ARM.Collect$$libinit$$00000012) refers to libinit2.o(.ARM.Collect$$libinit$$0000000F) for .ARM.Collect$$libinit$$0000000F
    libinit2.o(.ARM.Collect$$libinit$$00000014) refers to libinit2.o(.ARM.Collect$$libinit$$0000000F) for .ARM.Collect$$libinit$$0000000F
    libinit2.o(.ARM.Collect$$libinit$$00000016) refers to libinit2.o(.ARM.Collect$$libinit$$0000000F) for .ARM.Collect$$libinit$$0000000F
    libinit2.o(.ARM.Collect$$libinit$$00000018) refers to libinit2.o(.ARM.Collect$$libinit$$0000000F) for .ARM.Collect$$libinit$$0000000F
    libinit2.o(.ARM.Collect$$libinit$$00000026) refers to argv_veneer.o(.emb_text) for __ARM_argv_veneer
    libinit2.o(.ARM.Collect$$libinit$$00000027) refers to argv_veneer.o(.emb_text) for __ARM_argv_veneer
    rtexit2.o(.ARM.Collect$$rtexit$$00000003) refers to libshutdown.o(.ARM.Collect$$libshutdown$$00000000) for __rt_lib_shutdown
    rtexit2.o(.ARM.Collect$$rtexit$$00000004) refers to sys_exit.o(.text) for _sys_exit
    rtexit2.o(.ARM.exidx) refers to rtexit2.o(.ARM.Collect$$rtexit$$00000001) for .ARM.Collect$$rtexit$$00000001
    rtexit2.o(.ARM.exidx) refers to rtexit2.o(.ARM.Collect$$rtexit$$00000003) for .ARM.Collect$$rtexit$$00000003
    rtexit2.o(.ARM.exidx) refers to rtexit2.o(.ARM.Collect$$rtexit$$00000004) for .ARM.Collect$$rtexit$$00000004
    argv_veneer.o(.emb_text) refers to no_argv.o(.text) for __ARM_get_argv
    sys_exit.o(.text) refers (Special) to use_no_semi.o(.text) for __I$use$semihosting
    sys_exit.o(.text) refers (Special) to indicate_semi.o(.text) for __semihosting_library_function
    _get_argv_nomalloc.o(.text) refers (Special) to hrguard.o(.text) for __heap_region$guard
    _get_argv_nomalloc.o(.text) refers to defsig_rtmem_outer.o(.text) for __rt_SIGRTMEM
    _get_argv_nomalloc.o(.text) refers to sys_command.o(.text) for _sys_command_string
    libshutdown.o(.ARM.Collect$$libshutdown$$00000000) refers (Special) to libshutdown2.o(.ARM.Collect$$libshutdown$$00000004) for __rt_lib_shutdown_cpp_1
    libshutdown.o(.ARM.Collect$$libshutdown$$00000000) refers (Special) to libshutdown2.o(.ARM.Collect$$libshutdown$$00000002) for __rt_lib_shutdown_fini_1
    libshutdown.o(.ARM.Collect$$libshutdown$$00000000) refers (Special) to libshutdown2.o(.ARM.Collect$$libshutdown$$00000009) for __rt_lib_shutdown_fp_trap_1
    libshutdown.o(.ARM.Collect$$libshutdown$$00000000) refers (Special) to libshutdown2.o(.ARM.Collect$$libshutdown$$00000011) for __rt_lib_shutdown_heap_1
    libshutdown.o(.ARM.Collect$$libshutdown$$00000000) refers (Special) to libshutdown2.o(.ARM.Collect$$libshutdown$$00000012) for __rt_lib_shutdown_return
    libshutdown.o(.ARM.Collect$$libshutdown$$00000000) refers (Special) to libshutdown2.o(.ARM.Collect$$libshutdown$$0000000C) for __rt_lib_shutdown_signal_1
    libshutdown.o(.ARM.Collect$$libshutdown$$00000000) refers (Special) to libshutdown2.o(.ARM.Collect$$libshutdown$$00000006) for __rt_lib_shutdown_stdio_1
    libshutdown.o(.ARM.Collect$$libshutdown$$00000000) refers (Special) to libshutdown2.o(.ARM.Collect$$libshutdown$$0000000E) for __rt_lib_shutdown_user_alloc_1
    sys_command.o(.text) refers (Special) to use_no_semi.o(.text) for __I$use$semihosting
    sys_command.o(.text) refers (Special) to indicate_semi.o(.text) for __semihosting_library_function
    defsig_rtmem_outer.o(.text) refers to defsig_rtmem_inner.o(.text) for __rt_SIGRTMEM_inner
    defsig_rtmem_outer.o(.text) refers to defsig_exit.o(.text) for __sig_exit
    defsig_rtmem_formal.o(.text) refers to rt_raise.o(.text) for __rt_raise
    rt_raise.o(.text) refers to __raise.o(.text) for __raise
    rt_raise.o(.text) refers to sys_exit.o(.text) for _sys_exit
    defsig_exit.o(.text) refers to sys_exit.o(.text) for _sys_exit
    defsig_rtmem_inner.o(.text) refers to defsig_general.o(.text) for __default_signal_display
    __raise.o(.text) refers to defsig.o(CL$$defsig) for __default_signal_handler
    defsig_general.o(.text) refers to sys_wrch.o(.text) for _ttywrch
    sys_wrch.o(.text) refers (Special) to use_no_semi.o(.text) for __I$use$semihosting
    sys_wrch.o(.text) refers (Special) to indicate_semi.o(.text) for __semihosting_library_function
    defsig.o(CL$$defsig) refers to defsig_rtmem_inner.o(.text) for __rt_SIGRTMEM_inner
    defsig_abrt_inner.o(.text) refers to defsig_general.o(.text) for __default_signal_display
    defsig_fpe_inner.o(.text) refers to defsig_general.o(.text) for __default_signal_display
    defsig_rtred_inner.o(.text) refers to defsig_general.o(.text) for __default_signal_display
    defsig_stak_inner.o(.text) refers to defsig_general.o(.text) for __default_signal_display
    defsig_pvfn_inner.o(.text) refers to defsig_general.o(.text) for __default_signal_display
    defsig_cppl_inner.o(.text) refers to defsig_general.o(.text) for __default_signal_display
    defsig_segv_inner.o(.text) refers to defsig_general.o(.text) for __default_signal_display
    defsig_other.o(.text) refers to defsig_general.o(.text) for __default_signal_display


==============================================================================

Removing Unused input sections from the image.

    Removing stm32f103xb_bl.o(.rev16_text), (4 bytes).
    Removing stm32f103xb_bl.o(.revsh_text), (4 bytes).
    Removing stm32f103xb_bl.o(.rrx_text), (6 bytes).
    Removing circ_buf.o(.rev16_text), (4 bytes).
    Removing circ_buf.o(.revsh_text), (4 bytes).
    Removing circ_buf.o(.rrx_text), (6 bytes).
    Removing circ_buf.o(i.circ_buf_init), (22 bytes).
    Removing circ_buf.o(i.circ_buf_peek), (36 bytes).
    Removing circ_buf.o(i.circ_buf_pop_n), (100 bytes).
    Removing circ_buf.o(i.circ_buf_read), (46 bytes).
    Removing cortex_m.o(.rev16_text), (4 bytes).
    Removing cortex_m.o(.revsh_text), (4 bytes).
    Removing cortex_m.o(.rrx_text), (6 bytes).
    Removing crc32.o(.rev16_text), (4 bytes).
    Removing crc32.o(.revsh_text), (4 bytes).
    Removing crc32.o(.rrx_text), (6 bytes).
    Removing crc32.o(i.crc32_continue), (88 bytes).
    Removing daplink_debug.o(.rev16_text), (4 bytes).
    Removing daplink_debug.o(.revsh_text), (4 bytes).
    Removing daplink_debug.o(.rrx_text), (6 bytes).
    Removing error.o(.rev16_text), (4 bytes).
    Removing error.o(.revsh_text), (4 bytes).
    Removing error.o(.rrx_text), (6 bytes).
    Removing flash_hal.o(.rev16_text), (4 bytes).
    Removing flash_hal.o(.revsh_text), (4 bytes).
    Removing flash_hal.o(.rrx_text), (6 bytes).
    Removing hardfault_handler.o(.rev16_text), (4 bytes).
    Removing hardfault_handler.o(.revsh_text), (4 bytes).
    Removing hardfault_handler.o(.rrx_text), (6 bytes).
    Removing info.o(.rev16_text), (4 bytes).
    Removing info.o(.revsh_text), (4 bytes).
    Removing info.o(.rrx_text), (6 bytes).
    Removing info.o(i.info_get_bootloader_version), (18 bytes).
    Removing info.o(i.info_get_config_admin_present), (4 bytes).
    Removing info.o(i.info_get_config_user_present), (4 bytes).
    Removing info.o(i.info_get_crc_config_user), (12 bytes).
    Removing info.o(i.info_set_uuid_target), (60 bytes).
    Removing main_bootloader.o(.rev16_text), (4 bytes).
    Removing main_bootloader.o(.revsh_text), (4 bytes).
    Removing main_bootloader.o(.rrx_text), (6 bytes).
    Removing main_bootloader.o(i.__libc_init_array), (2 bytes).
    Removing sdk_stub.o(.rev16_text), (4 bytes).
    Removing sdk_stub.o(.revsh_text), (4 bytes).
    Removing sdk_stub.o(.rrx_text), (6 bytes).
    Removing sdk_stub.o(i.sdk_init), (2 bytes).
    Removing util.o(.rev16_text), (4 bytes).
    Removing util.o(.revsh_text), (4 bytes).
    Removing util.o(.rrx_text), (6 bytes).
    Removing util.o(i.util_write_hex16), (26 bytes).
    Removing util.o(i.util_write_string), (18 bytes).
    Removing util.o(i.vfs_mngr_fs_remount), (2 bytes).
    Removing validation.o(.rev16_text), (4 bytes).
    Removing validation.o(.revsh_text), (4 bytes).
    Removing validation.o(.rrx_text), (6 bytes).
    Removing file_stream.o(.rev16_text), (4 bytes).
    Removing file_stream.o(.revsh_text), (4 bytes).
    Removing file_stream.o(.rrx_text), (6 bytes).
    Removing flash_decoder.o(.rev16_text), (4 bytes).
    Removing flash_decoder.o(.revsh_text), (4 bytes).
    Removing flash_decoder.o(.rrx_text), (6 bytes).
    Removing flash_decoder.o(i.board_detect_incompatible_image), (4 bytes).
    Removing flash_intf.o(.rev16_text), (4 bytes).
    Removing flash_intf.o(.revsh_text), (4 bytes).
    Removing flash_intf.o(.rrx_text), (6 bytes).
    Removing flash_intf.o(.constdata), (4 bytes).
    Removing flash_intf.o(.constdata), (4 bytes).
    Removing flash_manager.o(.rev16_text), (4 bytes).
    Removing flash_manager.o(.revsh_text), (4 bytes).
    Removing flash_manager.o(.rrx_text), (6 bytes).
    Removing flash_manager.o(i.flash_manager_set_page_erase), (20 bytes).
    Removing iap_flash_intf.o(.rev16_text), (4 bytes).
    Removing iap_flash_intf.o(.revsh_text), (4 bytes).
    Removing iap_flash_intf.o(.rrx_text), (6 bytes).
    Removing iap_flash_intf.o(i.critical_erase_and_program), (68 bytes).
    Removing intelhex.o(.rev16_text), (4 bytes).
    Removing intelhex.o(.revsh_text), (4 bytes).
    Removing intelhex.o(.rrx_text), (6 bytes).
    Removing vfs_manager.o(.rev16_text), (4 bytes).
    Removing vfs_manager.o(.revsh_text), (4 bytes).
    Removing vfs_manager.o(.rrx_text), (6 bytes).
    Removing vfs_manager.o(i.vfs_mngr_fs_enable), (36 bytes).
    Removing vfs_user.o(.rev16_text), (4 bytes).
    Removing vfs_user.o(.revsh_text), (4 bytes).
    Removing vfs_user.o(.rrx_text), (6 bytes).
    Removing vfs_user.o(i.read_file_need_bl_txt), (48 bytes).
    Removing virtual_fs.o(.rev16_text), (4 bytes).
    Removing virtual_fs.o(.revsh_text), (4 bytes).
    Removing virtual_fs.o(.rrx_text), (6 bytes).
    Removing flash.o(.rev16_text), (4 bytes).
    Removing flash.o(.revsh_text), (4 bytes).
    Removing flash.o(.rrx_text), (6 bytes).
    Removing flash.o(i.EraseChip), (108 bytes).
    Removing gpio.o(.rev16_text), (4 bytes).
    Removing gpio.o(.revsh_text), (4 bytes).
    Removing gpio.o(.rrx_text), (6 bytes).
    Removing gpio.o(i.GPIOGetButtonState), (4 bytes).
    Removing gpio.o(i.gpio_set_board_power), (2 bytes).
    Removing gpio.o(i.target_forward_reset), (2 bytes).
    Removing read_uid.o(.rev16_text), (4 bytes).
    Removing read_uid.o(.revsh_text), (4 bytes).
    Removing read_uid.o(.rrx_text), (6 bytes).
    Removing sdk.o(.rev16_text), (4 bytes).
    Removing sdk.o(.revsh_text), (4 bytes).
    Removing sdk.o(.rrx_text), (6 bytes).
    Removing sdk.o(i.HAL_IncTick), (2 bytes).
    Removing sdk.o(i.HAL_ResumeTick), (12 bytes).
    Removing sdk.o(i.HAL_SuspendTick), (12 bytes).
    Removing stm32f1xx_hal.o(.rev16_text), (4 bytes).
    Removing stm32f1xx_hal.o(.revsh_text), (4 bytes).
    Removing stm32f1xx_hal.o(.rrx_text), (6 bytes).
    Removing stm32f1xx_hal.o(i.HAL_DBGMCU_DisableDBGSleepMode), (16 bytes).
    Removing stm32f1xx_hal.o(i.HAL_DBGMCU_DisableDBGStandbyMode), (16 bytes).
    Removing stm32f1xx_hal.o(i.HAL_DBGMCU_DisableDBGStopMode), (16 bytes).
    Removing stm32f1xx_hal.o(i.HAL_DBGMCU_EnableDBGSleepMode), (16 bytes).
    Removing stm32f1xx_hal.o(i.HAL_DBGMCU_EnableDBGStandbyMode), (16 bytes).
    Removing stm32f1xx_hal.o(i.HAL_DBGMCU_EnableDBGStopMode), (16 bytes).
    Removing stm32f1xx_hal.o(i.HAL_DeInit), (32 bytes).
    Removing stm32f1xx_hal.o(i.HAL_GetDEVID), (16 bytes).
    Removing stm32f1xx_hal.o(i.HAL_GetHalVersion), (8 bytes).
    Removing stm32f1xx_hal.o(i.HAL_GetREVID), (28 bytes).
    Removing stm32f1xx_hal.o(i.HAL_GetTick), (12 bytes).
    Removing stm32f1xx_hal.o(i.HAL_IncTick), (16 bytes).
    Removing stm32f1xx_hal.o(i.HAL_InitTick), (34 bytes).
    Removing stm32f1xx_hal.o(i.HAL_MspDeInit), (2 bytes).
    Removing stm32f1xx_hal.o(i.HAL_ResumeTick), (14 bytes).
    Removing stm32f1xx_hal.o(i.HAL_SuspendTick), (14 bytes).
    Removing stm32f1xx_hal.o(.data), (4 bytes).
    Removing stm32f1xx_hal_cortex.o(.rev16_text), (4 bytes).
    Removing stm32f1xx_hal_cortex.o(.revsh_text), (4 bytes).
    Removing stm32f1xx_hal_cortex.o(.rrx_text), (6 bytes).
    Removing stm32f1xx_hal_cortex.o(i.HAL_NVIC_ClearPendingIRQ), (26 bytes).
    Removing stm32f1xx_hal_cortex.o(i.HAL_NVIC_DisableIRQ), (34 bytes).
    Removing stm32f1xx_hal_cortex.o(i.HAL_NVIC_EnableIRQ), (26 bytes).
    Removing stm32f1xx_hal_cortex.o(i.HAL_NVIC_GetActive), (36 bytes).
    Removing stm32f1xx_hal_cortex.o(i.HAL_NVIC_GetPendingIRQ), (36 bytes).
    Removing stm32f1xx_hal_cortex.o(i.HAL_NVIC_GetPriority), (84 bytes).
    Removing stm32f1xx_hal_cortex.o(i.HAL_NVIC_GetPriorityGrouping), (16 bytes).
    Removing stm32f1xx_hal_cortex.o(i.HAL_NVIC_SetPendingIRQ), (26 bytes).
    Removing stm32f1xx_hal_cortex.o(i.HAL_NVIC_SetPriority), (64 bytes).
    Removing stm32f1xx_hal_cortex.o(i.HAL_NVIC_SystemReset), (36 bytes).
    Removing stm32f1xx_hal_cortex.o(i.HAL_SYSTICK_CLKSourceConfig), (24 bytes).
    Removing stm32f1xx_hal_cortex.o(i.HAL_SYSTICK_Callback), (2 bytes).
    Removing stm32f1xx_hal_cortex.o(i.HAL_SYSTICK_Config), (40 bytes).
    Removing stm32f1xx_hal_cortex.o(i.HAL_SYSTICK_IRQHandler), (8 bytes).
    Removing stm32f1xx_hal_cortex.o(i.__NVIC_SetPriority), (32 bytes).
    Removing stm32f1xx_hal_dma.o(.rev16_text), (4 bytes).
    Removing stm32f1xx_hal_dma.o(.revsh_text), (4 bytes).
    Removing stm32f1xx_hal_dma.o(.rrx_text), (6 bytes).
    Removing stm32f1xx_hal_dma.o(i.DMA_SetConfig), (30 bytes).
    Removing stm32f1xx_hal_dma.o(i.HAL_DMA_Abort), (84 bytes).
    Removing stm32f1xx_hal_dma.o(i.HAL_DMA_DeInit), (296 bytes).
    Removing stm32f1xx_hal_dma.o(i.HAL_DMA_GetError), (4 bytes).
    Removing stm32f1xx_hal_dma.o(i.HAL_DMA_GetState), (6 bytes).
    Removing stm32f1xx_hal_dma.o(i.HAL_DMA_IRQHandler), (588 bytes).
    Removing stm32f1xx_hal_dma.o(i.HAL_DMA_Init), (80 bytes).
    Removing stm32f1xx_hal_dma.o(i.HAL_DMA_PollForTransfer), (572 bytes).
    Removing stm32f1xx_hal_dma.o(i.HAL_DMA_Start), (58 bytes).
    Removing stm32f1xx_hal_dma.o(i.HAL_DMA_Start_IT), (88 bytes).
    Removing stm32f1xx_hal_flash.o(.rev16_text), (4 bytes).
    Removing stm32f1xx_hal_flash.o(.revsh_text), (4 bytes).
    Removing stm32f1xx_hal_flash.o(.rrx_text), (6 bytes).
    Removing stm32f1xx_hal_flash.o(i.HAL_FLASH_EndOfOperationCallback), (2 bytes).
    Removing stm32f1xx_hal_flash.o(i.HAL_FLASH_GetError), (12 bytes).
    Removing stm32f1xx_hal_flash.o(i.HAL_FLASH_IRQHandler), (264 bytes).
    Removing stm32f1xx_hal_flash.o(i.HAL_FLASH_OB_Launch), (10 bytes).
    Removing stm32f1xx_hal_flash.o(i.HAL_FLASH_OB_Lock), (20 bytes).
    Removing stm32f1xx_hal_flash.o(i.HAL_FLASH_OB_Unlock), (36 bytes).
    Removing stm32f1xx_hal_flash.o(i.HAL_FLASH_OperationErrorCallback), (2 bytes).
    Removing stm32f1xx_hal_flash.o(i.HAL_FLASH_Program_IT), (96 bytes).
    Removing stm32f1xx_hal_flash_ex.o(.rev16_text), (4 bytes).
    Removing stm32f1xx_hal_flash_ex.o(.revsh_text), (4 bytes).
    Removing stm32f1xx_hal_flash_ex.o(.rrx_text), (6 bytes).
    Removing stm32f1xx_hal_flash_ex.o(i.FLASH_OB_DisableWRP), (176 bytes).
    Removing stm32f1xx_hal_flash_ex.o(i.FLASH_OB_EnableWRP), (176 bytes).
    Removing stm32f1xx_hal_flash_ex.o(i.FLASH_OB_GetRDP), (24 bytes).
    Removing stm32f1xx_hal_flash_ex.o(i.FLASH_OB_RDP_LevelConfig), (100 bytes).
    Removing stm32f1xx_hal_flash_ex.o(i.HAL_FLASHEx_Erase_IT), (84 bytes).
    Removing stm32f1xx_hal_flash_ex.o(i.HAL_FLASHEx_OBErase), (84 bytes).
    Removing stm32f1xx_hal_flash_ex.o(i.HAL_FLASHEx_OBGetConfig), (48 bytes).
    Removing stm32f1xx_hal_flash_ex.o(i.HAL_FLASHEx_OBGetUserData), (48 bytes).
    Removing stm32f1xx_hal_flash_ex.o(i.HAL_FLASHEx_OBProgram), (200 bytes).
    Removing stm32f1xx_hal_gpio.o(.rev16_text), (4 bytes).
    Removing stm32f1xx_hal_gpio.o(.revsh_text), (4 bytes).
    Removing stm32f1xx_hal_gpio.o(.rrx_text), (6 bytes).
    Removing stm32f1xx_hal_gpio.o(i.HAL_GPIO_DeInit), (228 bytes).
    Removing stm32f1xx_hal_gpio.o(i.HAL_GPIO_EXTI_Callback), (2 bytes).
    Removing stm32f1xx_hal_gpio.o(i.HAL_GPIO_EXTI_IRQHandler), (24 bytes).
    Removing stm32f1xx_hal_gpio.o(i.HAL_GPIO_LockPin), (34 bytes).
    Removing stm32f1xx_hal_gpio.o(i.HAL_GPIO_ReadPin), (10 bytes).
    Removing stm32f1xx_hal_gpio.o(i.HAL_GPIO_TogglePin), (8 bytes).
    Removing stm32f1xx_hal_gpio_ex.o(.rev16_text), (4 bytes).
    Removing stm32f1xx_hal_gpio_ex.o(.revsh_text), (4 bytes).
    Removing stm32f1xx_hal_gpio_ex.o(.rrx_text), (6 bytes).
    Removing stm32f1xx_hal_gpio_ex.o(i.HAL_GPIOEx_ConfigEventout), (20 bytes).
    Removing stm32f1xx_hal_gpio_ex.o(i.HAL_GPIOEx_DisableEventout), (16 bytes).
    Removing stm32f1xx_hal_gpio_ex.o(i.HAL_GPIOEx_EnableEventout), (16 bytes).
    Removing stm32f1xx_hal_rcc.o(.rev16_text), (4 bytes).
    Removing stm32f1xx_hal_rcc.o(.revsh_text), (4 bytes).
    Removing stm32f1xx_hal_rcc.o(.rrx_text), (6 bytes).
    Removing stm32f1xx_hal_rcc.o(i.HAL_RCC_CSSCallback), (2 bytes).
    Removing stm32f1xx_hal_rcc.o(i.HAL_RCC_DeInit), (84 bytes).
    Removing stm32f1xx_hal_rcc.o(i.HAL_RCC_DisableCSS), (28 bytes).
    Removing stm32f1xx_hal_rcc.o(i.HAL_RCC_EnableCSS), (24 bytes).
    Removing stm32f1xx_hal_rcc.o(i.HAL_RCC_GetHCLKFreq), (12 bytes).
    Removing stm32f1xx_hal_rcc.o(i.HAL_RCC_GetOscConfig), (156 bytes).
    Removing stm32f1xx_hal_rcc.o(i.HAL_RCC_GetPCLK1Freq), (48 bytes).
    Removing stm32f1xx_hal_rcc.o(i.HAL_RCC_GetPCLK2Freq), (48 bytes).
    Removing stm32f1xx_hal_rcc.o(i.HAL_RCC_MCOConfig), (72 bytes).
    Removing stm32f1xx_hal_rcc.o(i.HAL_RCC_NMI_IRQHandler), (24 bytes).
    Removing stm32f1xx_hal_rcc_ex.o(.rev16_text), (4 bytes).
    Removing stm32f1xx_hal_rcc_ex.o(.revsh_text), (4 bytes).
    Removing stm32f1xx_hal_rcc_ex.o(.rrx_text), (6 bytes).
    Removing stm32f1xx_hal_rcc_ex.o(i.HAL_RCCEx_GetPeriphCLKConfig), (44 bytes).
    Removing stm32f1xx_hal_rcc_ex.o(i.HAL_RCCEx_GetPeriphCLKFreq), (240 bytes).
    Removing stm32f1xx_hal_rcc_ex.o(i.HAL_RCCEx_PeriphCLKConfig), (300 bytes).
    Removing stm32f1xx_hal_tim.o(.rev16_text), (4 bytes).
    Removing stm32f1xx_hal_tim.o(.revsh_text), (4 bytes).
    Removing stm32f1xx_hal_tim.o(.rrx_text), (6 bytes).
    Removing stm32f1xx_hal_tim.o(i.HAL_TIM_Base_GetState), (6 bytes).
    Removing stm32f1xx_hal_tim.o(i.HAL_TIM_Base_Start_DMA), (92 bytes).
    Removing stm32f1xx_hal_tim.o(i.HAL_TIM_Base_Start_IT), (24 bytes).
    Removing stm32f1xx_hal_tim.o(i.HAL_TIM_Base_Stop), (44 bytes).
    Removing stm32f1xx_hal_tim.o(i.HAL_TIM_Base_Stop_DMA), (48 bytes).
    Removing stm32f1xx_hal_tim.o(i.HAL_TIM_Base_Stop_IT), (42 bytes).
    Removing stm32f1xx_hal_tim.o(i.HAL_TIM_ConfigClockSource), (240 bytes).
    Removing stm32f1xx_hal_tim.o(i.HAL_TIM_ConfigOCrefClear), (192 bytes).
    Removing stm32f1xx_hal_tim.o(i.HAL_TIM_ConfigTI1Input), (16 bytes).
    Removing stm32f1xx_hal_tim.o(i.HAL_TIM_DMABurst_ReadStart), (260 bytes).
    Removing stm32f1xx_hal_tim.o(i.HAL_TIM_DMABurst_ReadStop), (96 bytes).
    Removing stm32f1xx_hal_tim.o(i.HAL_TIM_DMABurst_WriteStart), (260 bytes).
    Removing stm32f1xx_hal_tim.o(i.HAL_TIM_DMABurst_WriteStop), (96 bytes).
    Removing stm32f1xx_hal_tim.o(i.HAL_TIM_Encoder_DeInit), (56 bytes).
    Removing stm32f1xx_hal_tim.o(i.HAL_TIM_Encoder_GetState), (6 bytes).
    Removing stm32f1xx_hal_tim.o(i.HAL_TIM_Encoder_Init), (150 bytes).
    Removing stm32f1xx_hal_tim.o(i.HAL_TIM_Encoder_MspDeInit), (2 bytes).
    Removing stm32f1xx_hal_tim.o(i.HAL_TIM_Encoder_MspInit), (2 bytes).
    Removing stm32f1xx_hal_tim.o(i.HAL_TIM_Encoder_Start), (50 bytes).
    Removing stm32f1xx_hal_tim.o(i.HAL_TIM_Encoder_Start_DMA), (272 bytes).
    Removing stm32f1xx_hal_tim.o(i.HAL_TIM_Encoder_Start_IT), (92 bytes).
    Removing stm32f1xx_hal_tim.o(i.HAL_TIM_Encoder_Stop), (68 bytes).
    Removing stm32f1xx_hal_tim.o(i.HAL_TIM_Encoder_Stop_DMA), (116 bytes).
    Removing stm32f1xx_hal_tim.o(i.HAL_TIM_Encoder_Stop_IT), (116 bytes).
    Removing stm32f1xx_hal_tim.o(i.HAL_TIM_ErrorCallback), (2 bytes).
    Removing stm32f1xx_hal_tim.o(i.HAL_TIM_GenerateEvent), (38 bytes).
    Removing stm32f1xx_hal_tim.o(i.HAL_TIM_IC_CaptureCallback), (2 bytes).
    Removing stm32f1xx_hal_tim.o(i.HAL_TIM_IC_ConfigChannel), (284 bytes).
    Removing stm32f1xx_hal_tim.o(i.HAL_TIM_IC_DeInit), (56 bytes).
    Removing stm32f1xx_hal_tim.o(i.HAL_TIM_IC_GetState), (6 bytes).
    Removing stm32f1xx_hal_tim.o(i.HAL_TIM_IC_Init), (54 bytes).
    Removing stm32f1xx_hal_tim.o(i.HAL_TIM_IC_MspDeInit), (2 bytes).
    Removing stm32f1xx_hal_tim.o(i.HAL_TIM_IC_MspInit), (2 bytes).
    Removing stm32f1xx_hal_tim.o(i.HAL_TIM_IC_Start), (26 bytes).
    Removing stm32f1xx_hal_tim.o(i.HAL_TIM_IC_Start_DMA), (200 bytes).
    Removing stm32f1xx_hal_tim.o(i.HAL_TIM_IC_Start_IT), (76 bytes).
    Removing stm32f1xx_hal_tim.o(i.HAL_TIM_IC_Stop), (44 bytes).
    Removing stm32f1xx_hal_tim.o(i.HAL_TIM_IC_Stop_DMA), (100 bytes).
    Removing stm32f1xx_hal_tim.o(i.HAL_TIM_IC_Stop_IT), (94 bytes).
    Removing stm32f1xx_hal_tim.o(i.HAL_TIM_IRQHandler), (358 bytes).
    Removing stm32f1xx_hal_tim.o(i.HAL_TIM_OC_ConfigChannel), (86 bytes).
    Removing stm32f1xx_hal_tim.o(i.HAL_TIM_OC_DeInit), (56 bytes).
    Removing stm32f1xx_hal_tim.o(i.HAL_TIM_OC_DelayElapsedCallback), (2 bytes).
    Removing stm32f1xx_hal_tim.o(i.HAL_TIM_OC_GetState), (6 bytes).
    Removing stm32f1xx_hal_tim.o(i.HAL_TIM_OC_Init), (54 bytes).
    Removing stm32f1xx_hal_tim.o(i.HAL_TIM_OC_MspDeInit), (2 bytes).
    Removing stm32f1xx_hal_tim.o(i.HAL_TIM_OC_MspInit), (2 bytes).
    Removing stm32f1xx_hal_tim.o(i.HAL_TIM_OC_Start), (48 bytes).
    Removing stm32f1xx_hal_tim.o(i.HAL_TIM_OC_Start_DMA), (228 bytes).
    Removing stm32f1xx_hal_tim.o(i.HAL_TIM_OC_Start_IT), (96 bytes).
    Removing stm32f1xx_hal_tim.o(i.HAL_TIM_OC_Stop), (76 bytes).
    Removing stm32f1xx_hal_tim.o(i.HAL_TIM_OC_Stop_DMA), (132 bytes).
    Removing stm32f1xx_hal_tim.o(i.HAL_TIM_OC_Stop_IT), (128 bytes).
    Removing stm32f1xx_hal_tim.o(i.HAL_TIM_OnePulse_ConfigChannel), (218 bytes).
    Removing stm32f1xx_hal_tim.o(i.HAL_TIM_OnePulse_DeInit), (56 bytes).
    Removing stm32f1xx_hal_tim.o(i.HAL_TIM_OnePulse_GetState), (6 bytes).
    Removing stm32f1xx_hal_tim.o(i.HAL_TIM_OnePulse_Init), (74 bytes).
    Removing stm32f1xx_hal_tim.o(i.HAL_TIM_OnePulse_MspDeInit), (2 bytes).
    Removing stm32f1xx_hal_tim.o(i.HAL_TIM_OnePulse_MspInit), (2 bytes).
    Removing stm32f1xx_hal_tim.o(i.HAL_TIM_OnePulse_Start), (48 bytes).
    Removing stm32f1xx_hal_tim.o(i.HAL_TIM_OnePulse_Start_IT), (68 bytes).
    Removing stm32f1xx_hal_tim.o(i.HAL_TIM_OnePulse_Stop), (88 bytes).
    Removing stm32f1xx_hal_tim.o(i.HAL_TIM_OnePulse_Stop_IT), (108 bytes).
    Removing stm32f1xx_hal_tim.o(i.HAL_TIM_PWM_GetState), (6 bytes).
    Removing stm32f1xx_hal_tim.o(i.HAL_TIM_PWM_PulseFinishedCallback), (2 bytes).
    Removing stm32f1xx_hal_tim.o(i.HAL_TIM_PWM_Start_DMA), (228 bytes).
    Removing stm32f1xx_hal_tim.o(i.HAL_TIM_PWM_Start_IT), (96 bytes).
    Removing stm32f1xx_hal_tim.o(i.HAL_TIM_PWM_Stop), (84 bytes).
    Removing stm32f1xx_hal_tim.o(i.HAL_TIM_PWM_Stop_DMA), (132 bytes).
    Removing stm32f1xx_hal_tim.o(i.HAL_TIM_PWM_Stop_IT), (128 bytes).
    Removing stm32f1xx_hal_tim.o(i.HAL_TIM_PeriodElapsedCallback), (2 bytes).
    Removing stm32f1xx_hal_tim.o(i.HAL_TIM_ReadCapturedValue), (68 bytes).
    Removing stm32f1xx_hal_tim.o(i.HAL_TIM_SlaveConfigSynchronization), (66 bytes).
    Removing stm32f1xx_hal_tim.o(i.HAL_TIM_SlaveConfigSynchronization_IT), (66 bytes).
    Removing stm32f1xx_hal_tim.o(i.HAL_TIM_TriggerCallback), (2 bytes).
    Removing stm32f1xx_hal_tim.o(i.TIM_DMACaptureCplt), (62 bytes).
    Removing stm32f1xx_hal_tim.o(i.TIM_DMADelayPulseCplt), (62 bytes).
    Removing stm32f1xx_hal_tim.o(i.TIM_DMAError), (16 bytes).
    Removing stm32f1xx_hal_tim.o(i.TIM_DMAPeriodElapsedCplt), (16 bytes).
    Removing stm32f1xx_hal_tim.o(i.TIM_DMATriggerCplt), (16 bytes).
    Removing stm32f1xx_hal_tim.o(i.TIM_ETR_SetConfig), (20 bytes).
    Removing stm32f1xx_hal_tim.o(i.TIM_ITRx_SetConfig), (16 bytes).
    Removing stm32f1xx_hal_tim.o(i.TIM_SlaveTimer_SetConfig), (124 bytes).
    Removing stm32f1xx_hal_tim.o(i.TIM_TI1_ConfigInputStage), (34 bytes).
    Removing stm32f1xx_hal_tim.o(i.TIM_TI1_SetConfig), (88 bytes).
    Removing stm32f1xx_hal_tim.o(i.TIM_TI2_ConfigInputStage), (36 bytes).
    Removing stm32f1xx_hal_tim.o(i.TIM_TI2_SetConfig), (54 bytes).
    Removing stm32f1xx_hal_tim_ex.o(.rev16_text), (4 bytes).
    Removing stm32f1xx_hal_tim_ex.o(.revsh_text), (4 bytes).
    Removing stm32f1xx_hal_tim_ex.o(.rrx_text), (6 bytes).
    Removing stm32f1xx_hal_tim_ex.o(i.HAL_TIMEx_BreakCallback), (2 bytes).
    Removing stm32f1xx_hal_tim_ex.o(i.HAL_TIMEx_CommutationCallback), (2 bytes).
    Removing stm32f1xx_hal_tim_ex.o(i.HAL_TIMEx_ConfigBreakDeadTime), (66 bytes).
    Removing stm32f1xx_hal_tim_ex.o(i.HAL_TIMEx_ConfigCommutationEvent), (92 bytes).
    Removing stm32f1xx_hal_tim_ex.o(i.HAL_TIMEx_ConfigCommutationEvent_DMA), (124 bytes).
    Removing stm32f1xx_hal_tim_ex.o(i.HAL_TIMEx_ConfigCommutationEvent_IT), (102 bytes).
    Removing stm32f1xx_hal_tim_ex.o(i.HAL_TIMEx_HallSensor_DeInit), (56 bytes).
    Removing stm32f1xx_hal_tim_ex.o(i.HAL_TIMEx_HallSensor_GetState), (6 bytes).
    Removing stm32f1xx_hal_tim_ex.o(i.HAL_TIMEx_HallSensor_Init), (188 bytes).
    Removing stm32f1xx_hal_tim_ex.o(i.HAL_TIMEx_HallSensor_MspDeInit), (2 bytes).
    Removing stm32f1xx_hal_tim_ex.o(i.HAL_TIMEx_HallSensor_MspInit), (2 bytes).
    Removing stm32f1xx_hal_tim_ex.o(i.HAL_TIMEx_HallSensor_Start), (28 bytes).
    Removing stm32f1xx_hal_tim_ex.o(i.HAL_TIMEx_HallSensor_Start_DMA), (104 bytes).
    Removing stm32f1xx_hal_tim_ex.o(i.HAL_TIMEx_HallSensor_Start_IT), (38 bytes).
    Removing stm32f1xx_hal_tim_ex.o(i.HAL_TIMEx_HallSensor_Stop), (46 bytes).
    Removing stm32f1xx_hal_tim_ex.o(i.HAL_TIMEx_HallSensor_Stop_DMA), (56 bytes).
    Removing stm32f1xx_hal_tim_ex.o(i.HAL_TIMEx_HallSensor_Stop_IT), (56 bytes).
    Removing stm32f1xx_hal_tim_ex.o(i.HAL_TIMEx_MasterConfigSynchronization), (80 bytes).
    Removing stm32f1xx_hal_tim_ex.o(i.HAL_TIMEx_OCN_Start), (36 bytes).
    Removing stm32f1xx_hal_tim_ex.o(i.HAL_TIMEx_OCN_Start_DMA), (220 bytes).
    Removing stm32f1xx_hal_tim_ex.o(i.HAL_TIMEx_OCN_Start_IT), (96 bytes).
    Removing stm32f1xx_hal_tim_ex.o(i.HAL_TIMEx_OCN_Stop), (68 bytes).
    Removing stm32f1xx_hal_tim_ex.o(i.HAL_TIMEx_OCN_Stop_DMA), (124 bytes).
    Removing stm32f1xx_hal_tim_ex.o(i.HAL_TIMEx_OCN_Stop_IT), (134 bytes).
    Removing stm32f1xx_hal_tim_ex.o(i.HAL_TIMEx_OnePulseN_Start), (26 bytes).
    Removing stm32f1xx_hal_tim_ex.o(i.HAL_TIMEx_OnePulseN_Start_IT), (46 bytes).
    Removing stm32f1xx_hal_tim_ex.o(i.HAL_TIMEx_OnePulseN_Stop), (68 bytes).
    Removing stm32f1xx_hal_tim_ex.o(i.HAL_TIMEx_OnePulseN_Stop_IT), (88 bytes).
    Removing stm32f1xx_hal_tim_ex.o(i.HAL_TIMEx_PWMN_Start), (36 bytes).
    Removing stm32f1xx_hal_tim_ex.o(i.HAL_TIMEx_PWMN_Start_DMA), (220 bytes).
    Removing stm32f1xx_hal_tim_ex.o(i.HAL_TIMEx_PWMN_Start_IT), (96 bytes).
    Removing stm32f1xx_hal_tim_ex.o(i.HAL_TIMEx_PWMN_Stop), (68 bytes).
    Removing stm32f1xx_hal_tim_ex.o(i.HAL_TIMEx_PWMN_Stop_DMA), (124 bytes).
    Removing stm32f1xx_hal_tim_ex.o(i.HAL_TIMEx_PWMN_Stop_IT), (134 bytes).
    Removing stm32f1xx_hal_tim_ex.o(i.TIMEx_DMACommutationCplt), (16 bytes).
    Removing stm32f1xx_hal_tim_ex.o(i.TIM_CCxNChannelCmd), (22 bytes).
    Removing stm32f1xx_hal_uart.o(.rev16_text), (4 bytes).
    Removing stm32f1xx_hal_uart.o(.revsh_text), (4 bytes).
    Removing stm32f1xx_hal_uart.o(.rrx_text), (6 bytes).
    Removing stm32f1xx_hal_uart.o(i.HAL_HalfDuplex_EnableReceiver), (46 bytes).
    Removing stm32f1xx_hal_uart.o(i.HAL_HalfDuplex_EnableTransmitter), (48 bytes).
    Removing stm32f1xx_hal_uart.o(i.HAL_HalfDuplex_Init), (104 bytes).
    Removing stm32f1xx_hal_uart.o(i.HAL_LIN_Init), (118 bytes).
    Removing stm32f1xx_hal_uart.o(i.HAL_LIN_SendBreak), (44 bytes).
    Removing stm32f1xx_hal_uart.o(i.HAL_MultiProcessor_EnterMuteMode), (44 bytes).
    Removing stm32f1xx_hal_uart.o(i.HAL_MultiProcessor_ExitMuteMode), (44 bytes).
    Removing stm32f1xx_hal_uart.o(i.HAL_MultiProcessor_Init), (126 bytes).
    Removing stm32f1xx_hal_uart.o(i.HAL_UART_DMAPause), (90 bytes).
    Removing stm32f1xx_hal_uart.o(i.HAL_UART_DMAResume), (104 bytes).
    Removing stm32f1xx_hal_uart.o(i.HAL_UART_DMAStop), (40 bytes).
    Removing stm32f1xx_hal_uart.o(i.HAL_UART_DeInit), (60 bytes).
    Removing stm32f1xx_hal_uart.o(i.HAL_UART_ErrorCallback), (2 bytes).
    Removing stm32f1xx_hal_uart.o(i.HAL_UART_GetError), (4 bytes).
    Removing stm32f1xx_hal_uart.o(i.HAL_UART_GetState), (6 bytes).
    Removing stm32f1xx_hal_uart.o(i.HAL_UART_IRQHandler), (216 bytes).
    Removing stm32f1xx_hal_uart.o(i.HAL_UART_Init), (94 bytes).
    Removing stm32f1xx_hal_uart.o(i.HAL_UART_MspDeInit), (2 bytes).
    Removing stm32f1xx_hal_uart.o(i.HAL_UART_MspInit), (2 bytes).
    Removing stm32f1xx_hal_uart.o(i.HAL_UART_Receive), (202 bytes).
    Removing stm32f1xx_hal_uart.o(i.HAL_UART_Receive_DMA), (132 bytes).
    Removing stm32f1xx_hal_uart.o(i.HAL_UART_Receive_IT), (104 bytes).
    Removing stm32f1xx_hal_uart.o(i.HAL_UART_RxCpltCallback), (2 bytes).
    Removing stm32f1xx_hal_uart.o(i.HAL_UART_RxHalfCpltCallback), (2 bytes).
    Removing stm32f1xx_hal_uart.o(i.HAL_UART_Transmit), (200 bytes).
    Removing stm32f1xx_hal_uart.o(i.HAL_UART_Transmit_DMA), (144 bytes).
    Removing stm32f1xx_hal_uart.o(i.HAL_UART_Transmit_IT), (84 bytes).
    Removing stm32f1xx_hal_uart.o(i.HAL_UART_TxCpltCallback), (2 bytes).
    Removing stm32f1xx_hal_uart.o(i.HAL_UART_TxHalfCpltCallback), (2 bytes).
    Removing stm32f1xx_hal_uart.o(i.UART_DMAError), (30 bytes).
    Removing stm32f1xx_hal_uart.o(i.UART_DMAReceiveCplt), (52 bytes).
    Removing stm32f1xx_hal_uart.o(i.UART_DMARxHalfCplt), (10 bytes).
    Removing stm32f1xx_hal_uart.o(i.UART_DMATransmitCplt), (46 bytes).
    Removing stm32f1xx_hal_uart.o(i.UART_DMATxHalfCplt), (10 bytes).
    Removing stm32f1xx_hal_uart.o(i.UART_Receive_IT), (166 bytes).
    Removing stm32f1xx_hal_uart.o(i.UART_SetConfig), (368 bytes).
    Removing stm32f1xx_hal_uart.o(i.UART_Transmit_IT), (102 bytes).
    Removing stm32f1xx_hal_uart.o(i.UART_WaitOnFlagUntilTimeout), (146 bytes).
    Removing stm32f1xx_hal_usart.o(.rev16_text), (4 bytes).
    Removing stm32f1xx_hal_usart.o(.revsh_text), (4 bytes).
    Removing stm32f1xx_hal_usart.o(.rrx_text), (6 bytes).
    Removing stm32f1xx_hal_usart.o(i.HAL_USART_DMAPause), (38 bytes).
    Removing stm32f1xx_hal_usart.o(i.HAL_USART_DMAResume), (38 bytes).
    Removing stm32f1xx_hal_usart.o(i.HAL_USART_DMAStop), (40 bytes).
    Removing stm32f1xx_hal_usart.o(i.HAL_USART_DeInit), (46 bytes).
    Removing stm32f1xx_hal_usart.o(i.HAL_USART_ErrorCallback), (2 bytes).
    Removing stm32f1xx_hal_usart.o(i.HAL_USART_GetError), (4 bytes).
    Removing stm32f1xx_hal_usart.o(i.HAL_USART_GetState), (6 bytes).
    Removing stm32f1xx_hal_usart.o(i.HAL_USART_IRQHandler), (240 bytes).
    Removing stm32f1xx_hal_usart.o(i.HAL_USART_Init), (84 bytes).
    Removing stm32f1xx_hal_usart.o(i.HAL_USART_MspDeInit), (2 bytes).
    Removing stm32f1xx_hal_usart.o(i.HAL_USART_MspInit), (2 bytes).
    Removing stm32f1xx_hal_usart.o(i.HAL_USART_Receive), (210 bytes).
    Removing stm32f1xx_hal_usart.o(i.HAL_USART_Receive_DMA), (156 bytes).
    Removing stm32f1xx_hal_usart.o(i.HAL_USART_Receive_IT), (90 bytes).
    Removing stm32f1xx_hal_usart.o(i.HAL_USART_RxCpltCallback), (2 bytes).
    Removing stm32f1xx_hal_usart.o(i.HAL_USART_RxHalfCpltCallback), (2 bytes).
    Removing stm32f1xx_hal_usart.o(i.HAL_USART_Transmit), (168 bytes).
    Removing stm32f1xx_hal_usart.o(i.HAL_USART_TransmitReceive), (246 bytes).
    Removing stm32f1xx_hal_usart.o(i.HAL_USART_TransmitReceive_DMA), (196 bytes).
    Removing stm32f1xx_hal_usart.o(i.HAL_USART_TransmitReceive_IT), (102 bytes).
    Removing stm32f1xx_hal_usart.o(i.HAL_USART_Transmit_DMA), (128 bytes).
    Removing stm32f1xx_hal_usart.o(i.HAL_USART_Transmit_IT), (62 bytes).
    Removing stm32f1xx_hal_usart.o(i.HAL_USART_TxCpltCallback), (2 bytes).
    Removing stm32f1xx_hal_usart.o(i.HAL_USART_TxHalfCpltCallback), (2 bytes).
    Removing stm32f1xx_hal_usart.o(i.HAL_USART_TxRxCpltCallback), (2 bytes).
    Removing stm32f1xx_hal_usart.o(i.USART_DMAError), (30 bytes).
    Removing stm32f1xx_hal_usart.o(i.USART_DMAReceiveCplt), (76 bytes).
    Removing stm32f1xx_hal_usart.o(i.USART_DMARxHalfCplt), (10 bytes).
    Removing stm32f1xx_hal_usart.o(i.USART_DMATransmitCplt), (62 bytes).
    Removing stm32f1xx_hal_usart.o(i.USART_DMATxHalfCplt), (10 bytes).
    Removing stm32f1xx_hal_usart.o(i.USART_Receive_IT), (176 bytes).
    Removing stm32f1xx_hal_usart.o(i.USART_SetConfig), (248 bytes).
    Removing stm32f1xx_hal_usart.o(i.USART_TransmitReceive_IT), (232 bytes).
    Removing stm32f1xx_hal_usart.o(i.USART_Transmit_IT), (98 bytes).
    Removing stm32f1xx_hal_usart.o(i.USART_WaitOnFlagUntilTimeout), (146 bytes).
    Removing system_stm32f1xx.o(.rev16_text), (4 bytes).
    Removing system_stm32f1xx.o(.revsh_text), (4 bytes).
    Removing system_stm32f1xx.o(.rrx_text), (6 bytes).
    Removing system_stm32f1xx.o(.constdata), (8 bytes).
    Removing uart.o(.rev16_text), (4 bytes).
    Removing uart.o(.revsh_text), (4 bytes).
    Removing uart.o(.rrx_text), (6 bytes).
    Removing uart.o(i.clear_buffers), (44 bytes).
    Removing uart.o(i.uart_get_configuration), (32 bytes).
    Removing uart.o(i.uart_initialize), (176 bytes).
    Removing uart.o(i.uart_read_data), (16 bytes).
    Removing uart.o(i.uart_reset), (36 bytes).
    Removing uart.o(i.uart_set_configuration), (228 bytes).
    Removing uart.o(i.uart_set_control_line_state), (2 bytes).
    Removing uart.o(i.uart_uninitialize), (28 bytes).
    Removing uart.o(i.uart_write_data), (36 bytes).
    Removing uart.o(i.uart_write_free), (12 bytes).
    Removing uart.o(.data), (8 bytes).
    Removing usb_config.o(.rev16_text), (4 bytes).
    Removing usb_config.o(.revsh_text), (4 bytes).
    Removing usb_config.o(.rrx_text), (6 bytes).
    Removing usb_config.o(i.USBD_EndPoint0_Out_ADC_ReqToEP), (4 bytes).
    Removing usb_config.o(i.USBD_EndPoint0_Out_ADC_ReqToIF), (4 bytes).
    Removing usb_config.o(i.USBD_EndPoint0_Out_CLS_ReqToDEV), (4 bytes).
    Removing usb_config.o(i.USBD_EndPoint0_Out_CLS_ReqToEP), (4 bytes).
    Removing usb_config.o(i.USBD_EndPoint0_Out_CLS_ReqToIF), (4 bytes).
    Removing usb_config.o(i.USBD_EndPoint0_Setup_ADC_ReqToEP), (4 bytes).
    Removing usb_config.o(i.USBD_EndPoint0_Setup_ADC_ReqToIF), (4 bytes).
    Removing usb_config.o(i.USBD_EndPoint0_Setup_CLS_ReqToDEV), (4 bytes).
    Removing usb_config.o(i.USBD_EndPoint0_Setup_CLS_ReqToEP), (4 bytes).
    Removing usb_config.o(i.USBD_EndPoint0_Setup_CLS_ReqToIF), (4 bytes).
    Removing usb_config.o(i.board_usb_sof_event), (2 bytes).
    Removing usb_config.o(i.usbd_os_evt_get), (4 bytes).
    Removing usb_config.o(i.usbd_os_evt_set), (2 bytes).
    Removing usb_config.o(i.usbd_os_evt_wait_or), (4 bytes).
    Removing usb_config.o(.constdata), (1 bytes).
    Removing usb_config.o(.constdata), (4 bytes).
    Removing usb_config.o(.constdata), (4 bytes).
    Removing usb_config.o(.constdata), (4 bytes).
    Removing usb_config.o(.constdata), (33 bytes).
    Removing usb_config.o(.constdata), (2 bytes).
    Removing usb_config.o(.constdata), (1 bytes).
    Removing usb_config.o(.data), (2 bytes).
    Removing usb_config.o(.data), (1 bytes).
    Removing usb_config.o(.data), (1 bytes).
    Removing usb_config.o(.data), (1 bytes).
    Removing usbd_stm32f103.o(.rev16_text), (4 bytes).
    Removing usbd_stm32f103.o(.revsh_text), (4 bytes).
    Removing usbd_stm32f103.o(.rrx_text), (6 bytes).
    Removing usbd_stm32f103.o(i.USBD_ClearEPBuf), (2 bytes).
    Removing usbd_stm32f103.o(i.USBD_GetFrame), (16 bytes).
    Removing usbd_stm32f103.o(i.USBD_IntrEna), (6 bytes).
    Removing usbd_stm32f103.o(i.USBD_Resume), (2 bytes).
    Removing systick_handler.o(.rev16_text), (4 bytes).
    Removing systick_handler.o(.revsh_text), (4 bytes).
    Removing systick_handler.o(.rrx_text), (6 bytes).
    Removing systick_handler.o(i.sysTickTime), (12 bytes).
    Removing settings.o(.rev16_text), (4 bytes).
    Removing settings.o(.revsh_text), (4 bytes).
    Removing settings.o(.rrx_text), (6 bytes).
    Removing settings.o(i.config_ram_get_disable_msd), (12 bytes).
    Removing settings.o(i.config_ram_get_hold_in_bl), (16 bytes).
    Removing settings.o(i.config_ram_set_hold_in_bl), (12 bytes).
    Removing target_board.o(.rev16_text), (4 bytes).
    Removing target_board.o(.revsh_text), (4 bytes).
    Removing target_board.o(.rrx_text), (6 bytes).
    Removing target_board.o(i.flash_algo_valid), (20 bytes).
    Removing target_default.o(.rev16_text), (4 bytes).
    Removing target_default.o(.revsh_text), (4 bytes).
    Removing target_default.o(.rrx_text), (6 bytes).
    Removing target_default.o(.constdata), (132 bytes).
    Removing usbd_core.o(.rev16_text), (4 bytes).
    Removing usbd_core.o(.revsh_text), (4 bytes).
    Removing usbd_core.o(.rrx_text), (6 bytes).
    Removing usbd_core_msc.o(.rev16_text), (4 bytes).
    Removing usbd_core_msc.o(.revsh_text), (4 bytes).
    Removing usbd_core_msc.o(.rrx_text), (6 bytes).
    Removing usbd_msc.o(.rev16_text), (4 bytes).
    Removing usbd_msc.o(.revsh_text), (4 bytes).
    Removing usbd_msc.o(.rrx_text), (6 bytes).
    Removing usbd_msc.o(i.USBD_MSC_EP_BULKIN_Event), (4 bytes).
    Removing usbd_msc.o(i.USBD_MSC_Reset_Event), (4 bytes).
    Removing usbd_msc.o(i.usbd_msc_init), (2 bytes).
    Removing usbd_msc.o(i.usbd_msc_read_sect), (2 bytes).
    Removing usbd_msc.o(i.usbd_msc_write_sect), (2 bytes).

508 unused section(s) (total 23164 bytes) removed from the image.

==============================================================================

Image Symbol Table

    Local Symbols

    Symbol Name                              Value     Ov Type        Size  Object(Section)

    ../clib/angel/boardlib.s                 0x00000000   Number         0  boardshut.o ABSOLUTE
    ../clib/angel/boardlib.s                 0x00000000   Number         0  boardinit1.o ABSOLUTE
    ../clib/angel/boardlib.s                 0x00000000   Number         0  boardinit2.o ABSOLUTE
    ../clib/angel/boardlib.s                 0x00000000   Number         0  boardinit3.o ABSOLUTE
    ../clib/angel/dczerorl2.s                0x00000000   Number         0  __dczerorl2.o ABSOLUTE
    ../clib/angel/handlers.s                 0x00000000   Number         0  __scatter_zi.o ABSOLUTE
    ../clib/angel/kernel.s                   0x00000000   Number         0  __rtentry4.o ABSOLUTE
    ../clib/angel/kernel.s                   0x00000000   Number         0  __rtentry2.o ABSOLUTE
    ../clib/angel/kernel.s                   0x00000000   Number         0  rtexit2.o ABSOLUTE
    ../clib/angel/kernel.s                   0x00000000   Number         0  __rtentry.o ABSOLUTE
    ../clib/angel/kernel.s                   0x00000000   Number         0  rtexit.o ABSOLUTE
    ../clib/angel/rt.s                       0x00000000   Number         0  rt_raise.o ABSOLUTE
    ../clib/angel/scatter.s                  0x00000000   Number         0  __scatter.o ABSOLUTE
    ../clib/angel/startup.s                  0x00000000   Number         0  __main.o ABSOLUTE
    ../clib/angel/sys.s                      0x00000000   Number         0  sys_stackheap_outer.o ABSOLUTE
    ../clib/angel/sys.s                      0x00000000   Number         0  use_no_semi.o ABSOLUTE
    ../clib/angel/sys.s                      0x00000000   Number         0  indicate_semi.o ABSOLUTE
    ../clib/angel/sys.s                      0x00000000   Number         0  libspace.o ABSOLUTE
    ../clib/angel/sysapp.c                   0x00000000   Number         0  sys_exit.o ABSOLUTE
    ../clib/angel/sysapp.c                   0x00000000   Number         0  sys_command.o ABSOLUTE
    ../clib/angel/sysapp.c                   0x00000000   Number         0  sys_wrch.o ABSOLUTE
    ../clib/armsys.c                         0x00000000   Number         0  no_argv.o ABSOLUTE
    ../clib/armsys.c                         0x00000000   Number         0  _get_argv_nomalloc.o ABSOLUTE
    ../clib/armsys.c                         0x00000000   Number         0  argv_veneer.o ABSOLUTE
    ../clib/armsys.c                         0x00000000   Number         0  argv_veneer.o ABSOLUTE
    ../clib/heapalloc.c                      0x00000000   Number         0  hrguard.o ABSOLUTE
    ../clib/heapaux.c                        0x00000000   Number         0  heapauxi.o ABSOLUTE
    ../clib/libinit.s                        0x00000000   Number         0  libshutdown.o ABSOLUTE
    ../clib/libinit.s                        0x00000000   Number         0  libshutdown2.o ABSOLUTE
    ../clib/libinit.s                        0x00000000   Number         0  libinit2.o ABSOLUTE
    ../clib/libinit.s                        0x00000000   Number         0  libinit.o ABSOLUTE
    ../clib/longlong.s                       0x00000000   Number         0  llushr.o ABSOLUTE
    ../clib/memcpset.s                       0x00000000   Number         0  rt_memclr.o ABSOLUTE
    ../clib/memcpset.s                       0x00000000   Number         0  rt_memmove_w.o ABSOLUTE
    ../clib/memcpset.s                       0x00000000   Number         0  rt_memclr_w.o ABSOLUTE
    ../clib/memcpset.s                       0x00000000   Number         0  rt_memcpy_v6.o ABSOLUTE
    ../clib/memcpset.s                       0x00000000   Number         0  aeabi_memset.o ABSOLUTE
    ../clib/memcpset.s                       0x00000000   Number         0  rt_memcpy_w.o ABSOLUTE
    ../clib/memcpset.s                       0x00000000   Number         0  rt_memmove_v6.o ABSOLUTE
    ../clib/signal.c                         0x00000000   Number         0  defsig_rtmem_inner.o ABSOLUTE
    ../clib/signal.c                         0x00000000   Number         0  defsig_exit.o ABSOLUTE
    ../clib/signal.c                         0x00000000   Number         0  __raise.o ABSOLUTE
    ../clib/signal.c                         0x00000000   Number         0  defsig_rtmem_formal.o ABSOLUTE
    ../clib/signal.c                         0x00000000   Number         0  defsig_general.o ABSOLUTE
    ../clib/signal.c                         0x00000000   Number         0  defsig_rtmem_outer.o ABSOLUTE
    ../clib/signal.c                         0x00000000   Number         0  defsig_abrt_inner.o ABSOLUTE
    ../clib/signal.c                         0x00000000   Number         0  defsig_fpe_inner.o ABSOLUTE
    ../clib/signal.c                         0x00000000   Number         0  defsig_rtred_inner.o ABSOLUTE
    ../clib/signal.c                         0x00000000   Number         0  defsig_stak_inner.o ABSOLUTE
    ../clib/signal.c                         0x00000000   Number         0  defsig_pvfn_inner.o ABSOLUTE
    ../clib/signal.c                         0x00000000   Number         0  defsig_cppl_inner.o ABSOLUTE
    ../clib/signal.c                         0x00000000   Number         0  defsig_other.o ABSOLUTE
    ../clib/signal.c                         0x00000000   Number         0  defsig_segv_inner.o ABSOLUTE
    ../clib/signal.s                         0x00000000   Number         0  defsig.o ABSOLUTE
    ../clib/stdlib.c                         0x00000000   Number         0  exit.o ABSOLUTE
    ../clib/string.c                         0x00000000   Number         0  strcat.o ABSOLUTE
    ../clib/string.c                         0x00000000   Number         0  strncmp.o ABSOLUTE
    ../clib/string.c                         0x00000000   Number         0  strlen.o ABSOLUTE
    ../clib/string.c                         0x00000000   Number         0  memcmp.o ABSOLUTE
    ../fplib/fpinit.s                        0x00000000   Number         0  fpinit.o ABSOLUTE
    ..\..\..\source\board\stm32f103xb_bl.c   0x00000000   Number         0  stm32f103xb_bl.o ABSOLUTE
    ..\..\..\source\daplink\HardFault_Handler.c 0x00000000   Number         0  hardfault_handler.o ABSOLUTE
    ..\..\..\source\daplink\bootloader\main_bootloader.c 0x00000000   Number         0  main_bootloader.o ABSOLUTE
    ..\..\..\source\daplink\circ_buf.c       0x00000000   Number         0  circ_buf.o ABSOLUTE
    ..\..\..\source\daplink\cortex_m.c       0x00000000   Number         0  cortex_m.o ABSOLUTE
    ..\..\..\source\daplink\crc32.c          0x00000000   Number         0  crc32.o ABSOLUTE
    ..\..\..\source\daplink\daplink_debug.c  0x00000000   Number         0  daplink_debug.o ABSOLUTE
    ..\..\..\source\daplink\drag-n-drop\file_stream.c 0x00000000   Number         0  file_stream.o ABSOLUTE
    ..\..\..\source\daplink\drag-n-drop\flash_decoder.c 0x00000000   Number         0  flash_decoder.o ABSOLUTE
    ..\..\..\source\daplink\drag-n-drop\flash_intf.c 0x00000000   Number         0  flash_intf.o ABSOLUTE
    ..\..\..\source\daplink\drag-n-drop\flash_manager.c 0x00000000   Number         0  flash_manager.o ABSOLUTE
    ..\..\..\source\daplink\drag-n-drop\iap_flash_intf.c 0x00000000   Number         0  iap_flash_intf.o ABSOLUTE
    ..\..\..\source\daplink\drag-n-drop\intelhex.c 0x00000000   Number         0  intelhex.o ABSOLUTE
    ..\..\..\source\daplink\drag-n-drop\vfs_manager.c 0x00000000   Number         0  vfs_manager.o ABSOLUTE
    ..\..\..\source\daplink\drag-n-drop\vfs_user.c 0x00000000   Number         0  vfs_user.o ABSOLUTE
    ..\..\..\source\daplink\drag-n-drop\virtual_fs.c 0x00000000   Number         0  virtual_fs.o ABSOLUTE
    ..\..\..\source\daplink\error.c          0x00000000   Number         0  error.o ABSOLUTE
    ..\..\..\source\daplink\flash_hal.c      0x00000000   Number         0  flash_hal.o ABSOLUTE
    ..\..\..\source\daplink\info.c           0x00000000   Number         0  info.o ABSOLUTE
    ..\..\..\source\daplink\sdk_stub.c       0x00000000   Number         0  sdk_stub.o ABSOLUTE
    ..\..\..\source\daplink\settings\settings.c 0x00000000   Number         0  settings.o ABSOLUTE
    ..\..\..\source\daplink\settings\settings_rom_stub.c 0x00000000   Number         0  settings_rom_stub.o ABSOLUTE
    ..\..\..\source\daplink\util.c           0x00000000   Number         0  util.o ABSOLUTE
    ..\..\..\source\daplink\validation.c     0x00000000   Number         0  validation.o ABSOLUTE
    ..\..\..\source\hic_hal\stm32\stm32f103xb\STM32F1xx_HAL_Driver\Src\stm32f1xx_hal.c 0x00000000   Number         0  stm32f1xx_hal.o ABSOLUTE
    ..\..\..\source\hic_hal\stm32\stm32f103xb\STM32F1xx_HAL_Driver\Src\stm32f1xx_hal_cortex.c 0x00000000   Number         0  stm32f1xx_hal_cortex.o ABSOLUTE
    ..\..\..\source\hic_hal\stm32\stm32f103xb\STM32F1xx_HAL_Driver\Src\stm32f1xx_hal_dma.c 0x00000000   Number         0  stm32f1xx_hal_dma.o ABSOLUTE
    ..\..\..\source\hic_hal\stm32\stm32f103xb\STM32F1xx_HAL_Driver\Src\stm32f1xx_hal_flash.c 0x00000000   Number         0  stm32f1xx_hal_flash.o ABSOLUTE
    ..\..\..\source\hic_hal\stm32\stm32f103xb\STM32F1xx_HAL_Driver\Src\stm32f1xx_hal_flash_ex.c 0x00000000   Number         0  stm32f1xx_hal_flash_ex.o ABSOLUTE
    ..\..\..\source\hic_hal\stm32\stm32f103xb\STM32F1xx_HAL_Driver\Src\stm32f1xx_hal_gpio.c 0x00000000   Number         0  stm32f1xx_hal_gpio.o ABSOLUTE
    ..\..\..\source\hic_hal\stm32\stm32f103xb\STM32F1xx_HAL_Driver\Src\stm32f1xx_hal_gpio_ex.c 0x00000000   Number         0  stm32f1xx_hal_gpio_ex.o ABSOLUTE
    ..\..\..\source\hic_hal\stm32\stm32f103xb\STM32F1xx_HAL_Driver\Src\stm32f1xx_hal_rcc.c 0x00000000   Number         0  stm32f1xx_hal_rcc.o ABSOLUTE
    ..\..\..\source\hic_hal\stm32\stm32f103xb\STM32F1xx_HAL_Driver\Src\stm32f1xx_hal_rcc_ex.c 0x00000000   Number         0  stm32f1xx_hal_rcc_ex.o ABSOLUTE
    ..\..\..\source\hic_hal\stm32\stm32f103xb\STM32F1xx_HAL_Driver\Src\stm32f1xx_hal_tim.c 0x00000000   Number         0  stm32f1xx_hal_tim.o ABSOLUTE
    ..\..\..\source\hic_hal\stm32\stm32f103xb\STM32F1xx_HAL_Driver\Src\stm32f1xx_hal_tim_ex.c 0x00000000   Number         0  stm32f1xx_hal_tim_ex.o ABSOLUTE
    ..\..\..\source\hic_hal\stm32\stm32f103xb\STM32F1xx_HAL_Driver\Src\stm32f1xx_hal_uart.c 0x00000000   Number         0  stm32f1xx_hal_uart.o ABSOLUTE
    ..\..\..\source\hic_hal\stm32\stm32f103xb\STM32F1xx_HAL_Driver\Src\stm32f1xx_hal_usart.c 0x00000000   Number         0  stm32f1xx_hal_usart.o ABSOLUTE
    ..\..\..\source\hic_hal\stm32\stm32f103xb\cmsis\system_stm32f1xx.c 0x00000000   Number         0  system_stm32f1xx.o ABSOLUTE
    ..\..\..\source\hic_hal\stm32\stm32f103xb\flash.c 0x00000000   Number         0  flash.o ABSOLUTE
    ..\..\..\source\hic_hal\stm32\stm32f103xb\gpio.c 0x00000000   Number         0  gpio.o ABSOLUTE
    ..\..\..\source\hic_hal\stm32\stm32f103xb\read_uid.c 0x00000000   Number         0  read_uid.o ABSOLUTE
    ..\..\..\source\hic_hal\stm32\stm32f103xb\sdk.c 0x00000000   Number         0  sdk.o ABSOLUTE
    ..\..\..\source\hic_hal\stm32\stm32f103xb\uart.c 0x00000000   Number         0  uart.o ABSOLUTE
    ..\..\..\source\hic_hal\stm32\stm32f103xb\usb_config.c 0x00000000   Number         0  usb_config.o ABSOLUTE
    ..\..\..\source\hic_hal\stm32\stm32f103xb\usbd_STM32F103.c 0x00000000   Number         0  usbd_stm32f103.o ABSOLUTE
    ..\..\..\source\rtos_none\SysTick_Handler.c 0x00000000   Number         0  systick_handler.o ABSOLUTE
    ..\..\..\source\rtos_none\cmsis_os2_port.c 0x00000000   Number         0  cmsis_os2_port.o ABSOLUTE
    ..\..\..\source\target\target_board.c    0x00000000   Number         0  target_board.o ABSOLUTE
    ..\..\..\source\target\target_default.c  0x00000000   Number         0  target_default.o ABSOLUTE
    ..\..\..\source\usb\msc\usbd_core_msc.c  0x00000000   Number         0  usbd_core_msc.o ABSOLUTE
    ..\..\..\source\usb\msc\usbd_msc.c       0x00000000   Number         0  usbd_msc.o ABSOLUTE
    ..\..\..\source\usb\usbd_core.c          0x00000000   Number         0  usbd_core.o ABSOLUTE
    ..\\..\\..\\source\\board\\stm32f103xb_bl.c 0x00000000   Number         0  stm32f103xb_bl.o ABSOLUTE
    ..\\..\\..\\source\\daplink\\HardFault_Handler.c 0x00000000   Number         0  hardfault_handler.o ABSOLUTE
    ..\\..\\..\\source\\daplink\\bootloader\\main_bootloader.c 0x00000000   Number         0  main_bootloader.o ABSOLUTE
    ..\\..\\..\\source\\daplink\\circ_buf.c  0x00000000   Number         0  circ_buf.o ABSOLUTE
    ..\\..\\..\\source\\daplink\\cortex_m.c  0x00000000   Number         0  cortex_m.o ABSOLUTE
    ..\\..\\..\\source\\daplink\\crc32.c     0x00000000   Number         0  crc32.o ABSOLUTE
    ..\\..\\..\\source\\daplink\\daplink_debug.c 0x00000000   Number         0  daplink_debug.o ABSOLUTE
    ..\\..\\..\\source\\daplink\\drag-n-drop\\file_stream.c 0x00000000   Number         0  file_stream.o ABSOLUTE
    ..\\..\\..\\source\\daplink\\drag-n-drop\\flash_decoder.c 0x00000000   Number         0  flash_decoder.o ABSOLUTE
    ..\\..\\..\\source\\daplink\\drag-n-drop\\flash_intf.c 0x00000000   Number         0  flash_intf.o ABSOLUTE
    ..\\..\\..\\source\\daplink\\drag-n-drop\\flash_manager.c 0x00000000   Number         0  flash_manager.o ABSOLUTE
    ..\\..\\..\\source\\daplink\\drag-n-drop\\iap_flash_intf.c 0x00000000   Number         0  iap_flash_intf.o ABSOLUTE
    ..\\..\\..\\source\\daplink\\drag-n-drop\\intelhex.c 0x00000000   Number         0  intelhex.o ABSOLUTE
    ..\\..\\..\\source\\daplink\\drag-n-drop\\vfs_manager.c 0x00000000   Number         0  vfs_manager.o ABSOLUTE
    ..\\..\\..\\source\\daplink\\drag-n-drop\\vfs_user.c 0x00000000   Number         0  vfs_user.o ABSOLUTE
    ..\\..\\..\\source\\daplink\\drag-n-drop\\virtual_fs.c 0x00000000   Number         0  virtual_fs.o ABSOLUTE
    ..\\..\\..\\source\\daplink\\error.c     0x00000000   Number         0  error.o ABSOLUTE
    ..\\..\\..\\source\\daplink\\flash_hal.c 0x00000000   Number         0  flash_hal.o ABSOLUTE
    ..\\..\\..\\source\\daplink\\info.c      0x00000000   Number         0  info.o ABSOLUTE
    ..\\..\\..\\source\\daplink\\sdk_stub.c  0x00000000   Number         0  sdk_stub.o ABSOLUTE
    ..\\..\\..\\source\\daplink\\settings\\settings.c 0x00000000   Number         0  settings.o ABSOLUTE
    ..\\..\\..\\source\\daplink\\util.c      0x00000000   Number         0  util.o ABSOLUTE
    ..\\..\\..\\source\\daplink\\validation.c 0x00000000   Number         0  validation.o ABSOLUTE
    ..\\..\\..\\source\\hic_hal\\stm32\\stm32f103xb\\STM32F1xx_HAL_Driver\\Src\\stm32f1xx_hal.c 0x00000000   Number         0  stm32f1xx_hal.o ABSOLUTE
    ..\\..\\..\\source\\hic_hal\\stm32\\stm32f103xb\\STM32F1xx_HAL_Driver\\Src\\stm32f1xx_hal_cortex.c 0x00000000   Number         0  stm32f1xx_hal_cortex.o ABSOLUTE
    ..\\..\\..\\source\\hic_hal\\stm32\\stm32f103xb\\STM32F1xx_HAL_Driver\\Src\\stm32f1xx_hal_dma.c 0x00000000   Number         0  stm32f1xx_hal_dma.o ABSOLUTE
    ..\\..\\..\\source\\hic_hal\\stm32\\stm32f103xb\\STM32F1xx_HAL_Driver\\Src\\stm32f1xx_hal_flash.c 0x00000000   Number         0  stm32f1xx_hal_flash.o ABSOLUTE
    ..\\..\\..\\source\\hic_hal\\stm32\\stm32f103xb\\STM32F1xx_HAL_Driver\\Src\\stm32f1xx_hal_flash_ex.c 0x00000000   Number         0  stm32f1xx_hal_flash_ex.o ABSOLUTE
    ..\\..\\..\\source\\hic_hal\\stm32\\stm32f103xb\\STM32F1xx_HAL_Driver\\Src\\stm32f1xx_hal_gpio.c 0x00000000   Number         0  stm32f1xx_hal_gpio.o ABSOLUTE
    ..\\..\\..\\source\\hic_hal\\stm32\\stm32f103xb\\STM32F1xx_HAL_Driver\\Src\\stm32f1xx_hal_gpio_ex.c 0x00000000   Number         0  stm32f1xx_hal_gpio_ex.o ABSOLUTE
    ..\\..\\..\\source\\hic_hal\\stm32\\stm32f103xb\\STM32F1xx_HAL_Driver\\Src\\stm32f1xx_hal_rcc.c 0x00000000   Number         0  stm32f1xx_hal_rcc.o ABSOLUTE
    ..\\..\\..\\source\\hic_hal\\stm32\\stm32f103xb\\STM32F1xx_HAL_Driver\\Src\\stm32f1xx_hal_rcc_ex.c 0x00000000   Number         0  stm32f1xx_hal_rcc_ex.o ABSOLUTE
    ..\\..\\..\\source\\hic_hal\\stm32\\stm32f103xb\\STM32F1xx_HAL_Driver\\Src\\stm32f1xx_hal_tim.c 0x00000000   Number         0  stm32f1xx_hal_tim.o ABSOLUTE
    ..\\..\\..\\source\\hic_hal\\stm32\\stm32f103xb\\STM32F1xx_HAL_Driver\\Src\\stm32f1xx_hal_tim_ex.c 0x00000000   Number         0  stm32f1xx_hal_tim_ex.o ABSOLUTE
    ..\\..\\..\\source\\hic_hal\\stm32\\stm32f103xb\\STM32F1xx_HAL_Driver\\Src\\stm32f1xx_hal_uart.c 0x00000000   Number         0  stm32f1xx_hal_uart.o ABSOLUTE
    ..\\..\\..\\source\\hic_hal\\stm32\\stm32f103xb\\STM32F1xx_HAL_Driver\\Src\\stm32f1xx_hal_usart.c 0x00000000   Number         0  stm32f1xx_hal_usart.o ABSOLUTE
    ..\\..\\..\\source\\hic_hal\\stm32\\stm32f103xb\\armcc\\startup_stm32f103xb.S 0x00000000   Number         0  startup_stm32f103xb.o ABSOLUTE
    ..\\..\\..\\source\\hic_hal\\stm32\\stm32f103xb\\cmsis\\system_stm32f1xx.c 0x00000000   Number         0  system_stm32f1xx.o ABSOLUTE
    ..\\..\\..\\source\\hic_hal\\stm32\\stm32f103xb\\flash.c 0x00000000   Number         0  flash.o ABSOLUTE
    ..\\..\\..\\source\\hic_hal\\stm32\\stm32f103xb\\gpio.c 0x00000000   Number         0  gpio.o ABSOLUTE
    ..\\..\\..\\source\\hic_hal\\stm32\\stm32f103xb\\read_uid.c 0x00000000   Number         0  read_uid.o ABSOLUTE
    ..\\..\\..\\source\\hic_hal\\stm32\\stm32f103xb\\sdk.c 0x00000000   Number         0  sdk.o ABSOLUTE
    ..\\..\\..\\source\\hic_hal\\stm32\\stm32f103xb\\uart.c 0x00000000   Number         0  uart.o ABSOLUTE
    ..\\..\\..\\source\\hic_hal\\stm32\\stm32f103xb\\usb_config.c 0x00000000   Number         0  usb_config.o ABSOLUTE
    ..\\..\\..\\source\\hic_hal\\stm32\\stm32f103xb\\usbd_STM32F103.c 0x00000000   Number         0  usbd_stm32f103.o ABSOLUTE
    ..\\..\\..\\source\\rtos_none\\SysTick_Handler.c 0x00000000   Number         0  systick_handler.o ABSOLUTE
    ..\\..\\..\\source\\target\\target_board.c 0x00000000   Number         0  target_board.o ABSOLUTE
    ..\\..\\..\\source\\target\\target_default.c 0x00000000   Number         0  target_default.o ABSOLUTE
    ..\\..\\..\\source\\usb\\msc\\usbd_core_msc.c 0x00000000   Number         0  usbd_core_msc.o ABSOLUTE
    ..\\..\\..\\source\\usb\\msc\\usbd_msc.c 0x00000000   Number         0  usbd_msc.o ABSOLUTE
    ..\\..\\..\\source\\usb\\usbd_core.c     0x00000000   Number         0  usbd_core.o ABSOLUTE
    dc.s                                     0x00000000   Number         0  dc.o ABSOLUTE
    RESET                                    0x08000000   Section      236  startup_stm32f103xb.o(RESET)
    !!!main                                  0x080000ec   Section        8  __main.o(!!!main)
    !!!scatter                               0x080000f4   Section       52  __scatter.o(!!!scatter)
    !!dczerorl2                              0x08000128   Section       90  __dczerorl2.o(!!dczerorl2)
    !!handler_zi                             0x08000184   Section       28  __scatter_zi.o(!!handler_zi)
    .ARM.Collect$$libinit$$00000000          0x080001a0   Section        2  libinit.o(.ARM.Collect$$libinit$$00000000)
    .ARM.Collect$$libinit$$00000002          0x080001a2   Section        0  libinit2.o(.ARM.Collect$$libinit$$00000002)
    .ARM.Collect$$libinit$$00000004          0x080001a2   Section        0  libinit2.o(.ARM.Collect$$libinit$$00000004)
    .ARM.Collect$$libinit$$0000000A          0x080001a2   Section        0  libinit2.o(.ARM.Collect$$libinit$$0000000A)
    .ARM.Collect$$libinit$$0000000C          0x080001a2   Section        0  libinit2.o(.ARM.Collect$$libinit$$0000000C)
    .ARM.Collect$$libinit$$0000000E          0x080001a2   Section        0  libinit2.o(.ARM.Collect$$libinit$$0000000E)
    .ARM.Collect$$libinit$$00000011          0x080001a2   Section        0  libinit2.o(.ARM.Collect$$libinit$$00000011)
    .ARM.Collect$$libinit$$00000013          0x080001a2   Section        0  libinit2.o(.ARM.Collect$$libinit$$00000013)
    .ARM.Collect$$libinit$$00000015          0x080001a2   Section        0  libinit2.o(.ARM.Collect$$libinit$$00000015)
    .ARM.Collect$$libinit$$00000017          0x080001a2   Section        0  libinit2.o(.ARM.Collect$$libinit$$00000017)
    .ARM.Collect$$libinit$$00000019          0x080001a2   Section        0  libinit2.o(.ARM.Collect$$libinit$$00000019)
    .ARM.Collect$$libinit$$0000001B          0x080001a2   Section        0  libinit2.o(.ARM.Collect$$libinit$$0000001B)
    .ARM.Collect$$libinit$$0000001D          0x080001a2   Section        0  libinit2.o(.ARM.Collect$$libinit$$0000001D)
    .ARM.Collect$$libinit$$0000001F          0x080001a2   Section        0  libinit2.o(.ARM.Collect$$libinit$$0000001F)
    .ARM.Collect$$libinit$$00000021          0x080001a2   Section        0  libinit2.o(.ARM.Collect$$libinit$$00000021)
    .ARM.Collect$$libinit$$00000023          0x080001a2   Section        0  libinit2.o(.ARM.Collect$$libinit$$00000023)
    .ARM.Collect$$libinit$$00000025          0x080001a2   Section        0  libinit2.o(.ARM.Collect$$libinit$$00000025)
    .ARM.Collect$$libinit$$0000002C          0x080001a2   Section        0  libinit2.o(.ARM.Collect$$libinit$$0000002C)
    .ARM.Collect$$libinit$$0000002E          0x080001a2   Section        0  libinit2.o(.ARM.Collect$$libinit$$0000002E)
    .ARM.Collect$$libinit$$00000030          0x080001a2   Section        0  libinit2.o(.ARM.Collect$$libinit$$00000030)
    .ARM.Collect$$libinit$$00000032          0x080001a2   Section        0  libinit2.o(.ARM.Collect$$libinit$$00000032)
    .ARM.Collect$$libinit$$00000033          0x080001a2   Section        2  libinit2.o(.ARM.Collect$$libinit$$00000033)
    .ARM.Collect$$libshutdown$$00000000      0x080001a4   Section        2  libshutdown.o(.ARM.Collect$$libshutdown$$00000000)
    .ARM.Collect$$libshutdown$$00000002      0x080001a6   Section        0  libshutdown2.o(.ARM.Collect$$libshutdown$$00000002)
    .ARM.Collect$$libshutdown$$00000004      0x080001a6   Section        0  libshutdown2.o(.ARM.Collect$$libshutdown$$00000004)
    .ARM.Collect$$libshutdown$$00000006      0x080001a6   Section        0  libshutdown2.o(.ARM.Collect$$libshutdown$$00000006)
    .ARM.Collect$$libshutdown$$00000009      0x080001a6   Section        0  libshutdown2.o(.ARM.Collect$$libshutdown$$00000009)
    .ARM.Collect$$libshutdown$$0000000C      0x080001a6   Section        0  libshutdown2.o(.ARM.Collect$$libshutdown$$0000000C)
    .ARM.Collect$$libshutdown$$0000000E      0x080001a6   Section        0  libshutdown2.o(.ARM.Collect$$libshutdown$$0000000E)
    .ARM.Collect$$libshutdown$$00000011      0x080001a6   Section        0  libshutdown2.o(.ARM.Collect$$libshutdown$$00000011)
    .ARM.Collect$$libshutdown$$00000012      0x080001a6   Section        2  libshutdown2.o(.ARM.Collect$$libshutdown$$00000012)
    .ARM.Collect$$rtentry$$00000000          0x080001a8   Section        0  __rtentry.o(.ARM.Collect$$rtentry$$00000000)
    .ARM.Collect$$rtentry$$00000002          0x080001a8   Section        0  __rtentry2.o(.ARM.Collect$$rtentry$$00000002)
    .ARM.Collect$$rtentry$$00000004          0x080001a8   Section        6  __rtentry4.o(.ARM.Collect$$rtentry$$00000004)
    .ARM.Collect$$rtentry$$00000009          0x080001ae   Section        0  __rtentry2.o(.ARM.Collect$$rtentry$$00000009)
    .ARM.Collect$$rtentry$$0000000A          0x080001ae   Section        4  __rtentry2.o(.ARM.Collect$$rtentry$$0000000A)
    .ARM.Collect$$rtentry$$0000000C          0x080001b2   Section        0  __rtentry2.o(.ARM.Collect$$rtentry$$0000000C)
    .ARM.Collect$$rtentry$$0000000D          0x080001b2   Section        8  __rtentry2.o(.ARM.Collect$$rtentry$$0000000D)
    .ARM.Collect$$rtexit$$00000000           0x080001ba   Section        2  rtexit.o(.ARM.Collect$$rtexit$$00000000)
    .ARM.Collect$$rtexit$$00000002           0x080001bc   Section        0  rtexit2.o(.ARM.Collect$$rtexit$$00000002)
    .ARM.Collect$$rtexit$$00000003           0x080001bc   Section        4  rtexit2.o(.ARM.Collect$$rtexit$$00000003)
    .ARM.Collect$$rtexit$$00000004           0x080001c0   Section        6  rtexit2.o(.ARM.Collect$$rtexit$$00000004)
    .emb_text                                0x080001c8   Section        4  main_bootloader.o(.emb_text)
    .text                                    0x080001cc   Section       64  startup_stm32f103xb.o(.text)
    .text                                    0x0800020c   Section       38  llushr.o(.text)
    .text                                    0x08000232   Section        0  memcmp.o(.text)
    .text                                    0x0800028a   Section        0  strlen.o(.text)
    .text                                    0x080002c8   Section        0  strncmp.o(.text)
    .text                                    0x0800035e   Section        0  strcat.o(.text)
    .text                                    0x08000376   Section      138  rt_memcpy_v6.o(.text)
    .text                                    0x08000400   Section      132  rt_memmove_v6.o(.text)
    .text                                    0x08000484   Section      100  rt_memcpy_w.o(.text)
    .text                                    0x080004e8   Section       16  aeabi_memset.o(.text)
    .text                                    0x080004f8   Section       68  rt_memclr.o(.text)
    .text                                    0x0800053c   Section       78  rt_memclr_w.o(.text)
    .text                                    0x0800058a   Section        0  heapauxi.o(.text)
    .text                                    0x08000590   Section      122  rt_memmove_w.o(.text)
    .text                                    0x0800060a   Section       74  sys_stackheap_outer.o(.text)
    .text                                    0x08000654   Section        0  exit.o(.text)
    .text                                    0x08000668   Section        8  libspace.o(.text)
    .text                                    0x08000670   Section        0  sys_exit.o(.text)
    .text                                    0x0800067c   Section        2  use_no_semi.o(.text)
    .text                                    0x0800067e   Section        0  indicate_semi.o(.text)
    i.EP_Reset                               0x08000680   Section        0  usbd_stm32f103.o(i.EP_Reset)
    i.EP_Status                              0x080006a8   Section        0  usbd_stm32f103.o(i.EP_Status)
    i.EraseSector                            0x080006e4   Section        0  flash.o(i.EraseSector)
    i.FLASH_MassErase                        0x08000714   Section        0  stm32f1xx_hal_flash_ex.o(i.FLASH_MassErase)
    FLASH_MassErase                          0x08000715   Thumb Code    26  stm32f1xx_hal_flash_ex.o(i.FLASH_MassErase)
    i.FLASH_PageErase                        0x08000738   Section        0  stm32f1xx_hal_flash_ex.o(i.FLASH_PageErase)
    i.FLASH_Program_HalfWord                 0x0800075c   Section        0  stm32f1xx_hal_flash.o(i.FLASH_Program_HalfWord)
    FLASH_Program_HalfWord                   0x0800075d   Thumb Code    20  stm32f1xx_hal_flash.o(i.FLASH_Program_HalfWord)
    i.FLASH_SetErrorCode                     0x08000778   Section        0  stm32f1xx_hal_flash.o(i.FLASH_SetErrorCode)
    FLASH_SetErrorCode                       0x08000779   Thumb Code    60  stm32f1xx_hal_flash.o(i.FLASH_SetErrorCode)
    i.FLASH_WaitForLastOperation             0x080007bc   Section        0  stm32f1xx_hal_flash.o(i.FLASH_WaitForLastOperation)
    i.HAL_Delay                              0x08000810   Section        0  stm32f1xx_hal.o(i.HAL_Delay)
    i.HAL_FLASHEx_Erase                      0x08000828   Section        0  stm32f1xx_hal_flash_ex.o(i.HAL_FLASHEx_Erase)
    i.HAL_FLASH_Lock                         0x080008d0   Section        0  stm32f1xx_hal_flash.o(i.HAL_FLASH_Lock)
    i.HAL_FLASH_Program                      0x080008e4   Section        0  stm32f1xx_hal_flash.o(i.HAL_FLASH_Program)
    i.HAL_FLASH_Unlock                       0x08000968   Section        0  stm32f1xx_hal_flash.o(i.HAL_FLASH_Unlock)
    i.HAL_GPIO_Init                          0x0800098c   Section        0  stm32f1xx_hal_gpio.o(i.HAL_GPIO_Init)
    i.HAL_GPIO_WritePin                      0x08000b54   Section        0  stm32f1xx_hal_gpio.o(i.HAL_GPIO_WritePin)
    i.HAL_GetTick                            0x08000b60   Section        0  sdk.o(i.HAL_GetTick)
    i.HAL_Init                               0x08000b8c   Section        0  stm32f1xx_hal.o(i.HAL_Init)
    i.HAL_InitTick                           0x08000bb0   Section        0  sdk.o(i.HAL_InitTick)
    i.HAL_MspInit                            0x08000c54   Section        0  stm32f1xx_hal.o(i.HAL_MspInit)
    i.HAL_NVIC_SetPriorityGrouping           0x08000c58   Section        0  stm32f1xx_hal_cortex.o(i.HAL_NVIC_SetPriorityGrouping)
    i.HAL_RCC_ClockConfig                    0x08000c7c   Section        0  stm32f1xx_hal_rcc.o(i.HAL_RCC_ClockConfig)
    i.HAL_RCC_GetClockConfig                 0x08000dfc   Section        0  stm32f1xx_hal_rcc.o(i.HAL_RCC_GetClockConfig)
    i.HAL_RCC_GetSysClockFreq                0x08000e3c   Section        0  stm32f1xx_hal_rcc.o(i.HAL_RCC_GetSysClockFreq)
    i.HAL_RCC_OscConfig                      0x08000ec4   Section        0  stm32f1xx_hal_rcc.o(i.HAL_RCC_OscConfig)
    i.HAL_TIM_Base_DeInit                    0x0800143e   Section        0  stm32f1xx_hal_tim.o(i.HAL_TIM_Base_DeInit)
    i.HAL_TIM_Base_Init                      0x08001476   Section        0  stm32f1xx_hal_tim.o(i.HAL_TIM_Base_Init)
    i.HAL_TIM_Base_MspDeInit                 0x080014ac   Section        0  stm32f1xx_hal_tim.o(i.HAL_TIM_Base_MspDeInit)
    i.HAL_TIM_Base_MspInit                   0x080014ae   Section        0  stm32f1xx_hal_tim.o(i.HAL_TIM_Base_MspInit)
    i.HAL_TIM_Base_Start                     0x080014b0   Section        0  stm32f1xx_hal_tim.o(i.HAL_TIM_Base_Start)
    i.HAL_TIM_PWM_ConfigChannel              0x080014ca   Section        0  stm32f1xx_hal_tim.o(i.HAL_TIM_PWM_ConfigChannel)
    i.HAL_TIM_PWM_DeInit                     0x0800159a   Section        0  stm32f1xx_hal_tim.o(i.HAL_TIM_PWM_DeInit)
    i.HAL_TIM_PWM_Init                       0x080015d2   Section        0  stm32f1xx_hal_tim.o(i.HAL_TIM_PWM_Init)
    i.HAL_TIM_PWM_MspDeInit                  0x08001608   Section        0  stm32f1xx_hal_tim.o(i.HAL_TIM_PWM_MspDeInit)
    i.HAL_TIM_PWM_MspInit                    0x0800160a   Section        0  stm32f1xx_hal_tim.o(i.HAL_TIM_PWM_MspInit)
    i.HAL_TIM_PWM_Start                      0x0800160c   Section        0  stm32f1xx_hal_tim.o(i.HAL_TIM_PWM_Start)
    i.HardFault_Handler                      0x0800163c   Section        0  hardfault_handler.o(i.HardFault_Handler)
    i.Init                                   0x08001640   Section        0  flash.o(i.Init)
    i.ProgramPage                            0x08001644   Section        0  flash.o(i.ProgramPage)
    i.SysTick_Handler                        0x0800169c   Section        0  systick_handler.o(i.SysTick_Handler)
    i.SystemCoreClockUpdate                  0x080016d0   Section        0  system_stm32f1xx.o(i.SystemCoreClockUpdate)
    i.SystemInit                             0x08001738   Section        0  system_stm32f1xx.o(i.SystemInit)
    i.SystemReset                            0x08001780   Section        0  cortex_m.o(i.SystemReset)
    i.TIM_Base_SetConfig                     0x080017a4   Section        0  stm32f1xx_hal_tim.o(i.TIM_Base_SetConfig)
    i.TIM_CCxChannelCmd                      0x08001808   Section        0  stm32f1xx_hal_tim.o(i.TIM_CCxChannelCmd)
    i.TIM_OC1_SetConfig                      0x08001820   Section        0  stm32f1xx_hal_tim.o(i.TIM_OC1_SetConfig)
    TIM_OC1_SetConfig                        0x08001821   Thumb Code    82  stm32f1xx_hal_tim.o(i.TIM_OC1_SetConfig)
    i.TIM_OC2_SetConfig                      0x08001878   Section        0  stm32f1xx_hal_tim.o(i.TIM_OC2_SetConfig)
    i.TIM_OC3_SetConfig                      0x080018d4   Section        0  stm32f1xx_hal_tim.o(i.TIM_OC3_SetConfig)
    TIM_OC3_SetConfig                        0x080018d5   Thumb Code    84  stm32f1xx_hal_tim.o(i.TIM_OC3_SetConfig)
    i.TIM_OC4_SetConfig                      0x0800192c   Section        0  stm32f1xx_hal_tim.o(i.TIM_OC4_SetConfig)
    TIM_OC4_SetConfig                        0x0800192d   Thumb Code    64  stm32f1xx_hal_tim.o(i.TIM_OC4_SetConfig)
    i.USART2_IRQHandler                      0x08001970   Section        0  uart.o(i.USART2_IRQHandler)
    i.USBD_ClrStallEP                        0x080019f0   Section        0  usbd_stm32f103.o(i.USBD_ClrStallEP)
    i.USBD_ConfigEP                          0x08001a08   Section        0  usbd_stm32f103.o(i.USBD_ConfigEP)
    i.USBD_Configure                         0x08001a98   Section        0  usbd_stm32f103.o(i.USBD_Configure)
    i.USBD_Connect                           0x08001aa8   Section        0  usbd_stm32f103.o(i.USBD_Connect)
    i.USBD_DataInStage                       0x08001ad8   Section        0  usbd_core.o(i.USBD_DataInStage)
    i.USBD_DataOutStage                      0x08001b10   Section        0  usbd_core.o(i.USBD_DataOutStage)
    i.USBD_DirCtrlEP                         0x08001b30   Section        0  usbd_stm32f103.o(i.USBD_DirCtrlEP)
    i.USBD_DisableEP                         0x08001b32   Section        0  usbd_stm32f103.o(i.USBD_DisableEP)
    i.USBD_EnableEP                          0x08001b38   Section        0  usbd_stm32f103.o(i.USBD_EnableEP)
    i.USBD_EndPoint0                         0x08001b40   Section        0  usbd_core.o(i.USBD_EndPoint0)
    i.USBD_EndPoint0_Out_CDC_ReqToIF         0x08001d14   Section        0  usb_config.o(i.USBD_EndPoint0_Out_CDC_ReqToIF)
    i.USBD_EndPoint0_Out_HID_ReqToIF         0x08001d18   Section        0  usb_config.o(i.USBD_EndPoint0_Out_HID_ReqToIF)
    i.USBD_EndPoint0_Setup_CDC_ReqToIF       0x08001d1c   Section        0  usb_config.o(i.USBD_EndPoint0_Setup_CDC_ReqToIF)
    i.USBD_EndPoint0_Setup_HID_ReqToIF       0x08001d20   Section        0  usb_config.o(i.USBD_EndPoint0_Setup_HID_ReqToIF)
    i.USBD_EndPoint0_Setup_MSC_ReqToIF       0x08001d24   Section        0  usbd_core_msc.o(i.USBD_EndPoint0_Setup_MSC_ReqToIF)
    i.USBD_EndPoint0_Setup_WebUSB_ReqToDevice 0x08001d80   Section        0  usb_config.o(i.USBD_EndPoint0_Setup_WebUSB_ReqToDevice)
    i.USBD_EndPoint0_Setup_WinUSB_ReqToDevice 0x08001d84   Section        0  usb_config.o(i.USBD_EndPoint0_Setup_WinUSB_ReqToDevice)
    i.USBD_Handler                           0x08001d88   Section        0  usbd_stm32f103.o(i.USBD_Handler)
    i.USBD_Init                              0x08001e8c   Section        0  usbd_stm32f103.o(i.USBD_Init)
    i.USBD_MSC_ATAPassThrough                0x08001eb0   Section        0  usbd_msc.o(i.USBD_MSC_ATAPassThrough)
    i.USBD_MSC_BulkIn                        0x08001f08   Section        0  usbd_msc.o(i.USBD_MSC_BulkIn)
    i.USBD_MSC_BulkOut                       0x08001f5c   Section        0  usbd_msc.o(i.USBD_MSC_BulkOut)
    i.USBD_MSC_CheckMedia                    0x08001ff4   Section        0  usbd_msc.o(i.USBD_MSC_CheckMedia)
    i.USBD_MSC_ClrStallEP                    0x08002048   Section        0  usbd_msc.o(i.USBD_MSC_ClrStallEP)
    i.USBD_MSC_DataInFormat                  0x080020a0   Section        0  usbd_msc.o(i.USBD_MSC_DataInFormat)
    i.USBD_MSC_DataInTransfer                0x080020d4   Section        0  usbd_msc.o(i.USBD_MSC_DataInTransfer)
    i.USBD_MSC_EP_BULKOUT_Event              0x08002120   Section        0  usbd_msc.o(i.USBD_MSC_EP_BULKOUT_Event)
    i.USBD_MSC_EP_BULK_Event                 0x0800214c   Section        0  usbd_msc.o(i.USBD_MSC_EP_BULK_Event)
    i.USBD_MSC_GetCBW                        0x08002168   Section        0  usbd_msc.o(i.USBD_MSC_GetCBW)
    i.USBD_MSC_GetMaxLUN                     0x08002358   Section        0  usbd_msc.o(i.USBD_MSC_GetMaxLUN)
    i.USBD_MSC_Inquiry                       0x08002368   Section        0  usbd_msc.o(i.USBD_MSC_Inquiry)
    i.USBD_MSC_MediaRemoval                  0x080023c4   Section        0  usbd_msc.o(i.USBD_MSC_MediaRemoval)
    i.USBD_MSC_MemoryRead                    0x080023e0   Section        0  usbd_msc.o(i.USBD_MSC_MemoryRead)
    i.USBD_MSC_MemoryVerify                  0x080024b4   Section        0  usbd_msc.o(i.USBD_MSC_MemoryVerify)
    i.USBD_MSC_MemoryWrite                   0x08002588   Section        0  usbd_msc.o(i.USBD_MSC_MemoryWrite)
    i.USBD_MSC_ModeSense10                   0x08002678   Section        0  usbd_msc.o(i.USBD_MSC_ModeSense10)
    i.USBD_MSC_ModeSense6                    0x080026d0   Section        0  usbd_msc.o(i.USBD_MSC_ModeSense6)
    i.USBD_MSC_RWSetup                       0x08002720   Section        0  usbd_msc.o(i.USBD_MSC_RWSetup)
    i.USBD_MSC_ReadCapacity                  0x080027cc   Section        0  usbd_msc.o(i.USBD_MSC_ReadCapacity)
    i.USBD_MSC_ReadFormatCapacity            0x0800281c   Section        0  usbd_msc.o(i.USBD_MSC_ReadFormatCapacity)
    i.USBD_MSC_RequestSense                  0x08002888   Section        0  usbd_msc.o(i.USBD_MSC_RequestSense)
    i.USBD_MSC_Reset                         0x0800290c   Section        0  usbd_msc.o(i.USBD_MSC_Reset)
    i.USBD_MSC_ServiceActionIn16             0x0800292c   Section        0  usbd_msc.o(i.USBD_MSC_ServiceActionIn16)
    i.USBD_MSC_SetCSW                        0x08002978   Section        0  usbd_msc.o(i.USBD_MSC_SetCSW)
    i.USBD_MSC_SetStallEP                    0x080029a8   Section        0  usbd_msc.o(i.USBD_MSC_SetStallEP)
    i.USBD_MSC_StartStopUnit                 0x080029d4   Section        0  usbd_msc.o(i.USBD_MSC_StartStopUnit)
    i.USBD_MSC_SynchronizeCache              0x08002a08   Section        0  usbd_msc.o(i.USBD_MSC_SynchronizeCache)
    i.USBD_MSC_TestUnitReady                 0x08002a18   Section        0  usbd_msc.o(i.USBD_MSC_TestUnitReady)
    i.USBD_RTX_TaskInit                      0x08002a64   Section        0  usb_config.o(i.USBD_RTX_TaskInit)
    i.USBD_ReadEP                            0x08002a68   Section        0  usbd_stm32f103.o(i.USBD_ReadEP)
    i.USBD_ReqClrFeature_MSC                 0x08002ab4   Section        0  usbd_core_msc.o(i.USBD_ReqClrFeature_MSC)
    i.USBD_ReqGetDescriptor                  0x08002ab8   Section        0  usbd_core.o(i.USBD_ReqGetDescriptor)
    USBD_ReqGetDescriptor                    0x08002ab9   Thumb Code   320  usbd_core.o(i.USBD_ReqGetDescriptor)
    i.USBD_ReqGetDescriptor_HID              0x08002c24   Section        0  usb_config.o(i.USBD_ReqGetDescriptor_HID)
    i.USBD_ReqGetStatus                      0x08002c28   Section        0  usbd_core.o(i.USBD_ReqGetStatus)
    USBD_ReqGetStatus                        0x08002c29   Thumb Code   116  usbd_core.o(i.USBD_ReqGetStatus)
    i.USBD_ReqSetClrFeature                  0x08002ca4   Section        0  usbd_core.o(i.USBD_ReqSetClrFeature)
    USBD_ReqSetClrFeature                    0x08002ca5   Thumb Code   156  usbd_core.o(i.USBD_ReqSetClrFeature)
    i.USBD_ReqSetConfiguration               0x08002d44   Section        0  usbd_core.o(i.USBD_ReqSetConfiguration)
    USBD_ReqSetConfiguration                 0x08002d45   Thumb Code   368  usbd_core.o(i.USBD_ReqSetConfiguration)
    i.USBD_ReqSetInterface                   0x08002ecc   Section        0  usbd_core.o(i.USBD_ReqSetInterface)
    USBD_ReqSetInterface                     0x08002ecd   Thumb Code   278  usbd_core.o(i.USBD_ReqSetInterface)
    i.USBD_Reset                             0x08002ff8   Section        0  usbd_stm32f103.o(i.USBD_Reset)
    i.USBD_ResetEP                           0x080030a8   Section        0  usbd_stm32f103.o(i.USBD_ResetEP)
    i.USBD_SetAddress                        0x080030ac   Section        0  usbd_stm32f103.o(i.USBD_SetAddress)
    i.USBD_SetStallEP                        0x080030c0   Section        0  usbd_stm32f103.o(i.USBD_SetStallEP)
    i.USBD_SetupStage                        0x080030c8   Section        0  usbd_core.o(i.USBD_SetupStage)
    i.USBD_SignalHandler                     0x080030d8   Section        0  main_bootloader.o(i.USBD_SignalHandler)
    i.USBD_StatusInStage                     0x080030e8   Section        0  usbd_core.o(i.USBD_StatusInStage)
    i.USBD_StatusOutStage                    0x080030f4   Section        0  usbd_core.o(i.USBD_StatusOutStage)
    i.USBD_Suspend                           0x08003108   Section        0  usbd_stm32f103.o(i.USBD_Suspend)
    i.USBD_WakeUp                            0x08003120   Section        0  usbd_stm32f103.o(i.USBD_WakeUp)
    i.USBD_WakeUpCfg                         0x08003130   Section        0  usbd_stm32f103.o(i.USBD_WakeUpCfg)
    i.USBD_WriteEP                           0x08003134   Section        0  usbd_stm32f103.o(i.USBD_WriteEP)
    i.USB_LP_CAN1_RX0_IRQHandler             0x08003198   Section        0  usbd_stm32f103.o(i.USB_LP_CAN1_RX0_IRQHandler)
    i.UnInit                                 0x0800323c   Section        0  flash.o(i.UnInit)
    i.__NVIC_EnableIRQ                       0x08003240   Section        0  usbd_stm32f103.o(i.__NVIC_EnableIRQ)
    __NVIC_EnableIRQ                         0x08003241   Thumb Code    26  usbd_stm32f103.o(i.__NVIC_EnableIRQ)
    i._fault_handler                         0x0800325c   Section        0  hardfault_handler.o(i._fault_handler)
    __tagsym$$used                           0x0800325d   Number         0  hardfault_handler.o(i._fault_handler)
    i._util_assert                           0x08003308   Section        0  util.o(i._util_assert)
    i.board_bootloader_init                  0x0800334a   Section        0  main_bootloader.o(i.board_bootloader_init)
    i.board_vfs_stream_closed_hook           0x0800334c   Section        0  vfs_manager.o(i.board_vfs_stream_closed_hook)
    i.build_filesystem                       0x08003350   Section        0  vfs_manager.o(i.build_filesystem)
    build_filesystem                         0x08003351   Thumb Code    60  vfs_manager.o(i.build_filesystem)
    i.changing_state                         0x080033b0   Section        0  vfs_manager.o(i.changing_state)
    changing_state                           0x080033b1   Thumb Code    18  vfs_manager.o(i.changing_state)
    i.circ_buf_count_free                    0x080033c8   Section        0  circ_buf.o(i.circ_buf_count_free)
    i.circ_buf_count_used                    0x080033e2   Section        0  circ_buf.o(i.circ_buf_count_used)
    i.circ_buf_pop                           0x08003400   Section        0  circ_buf.o(i.circ_buf_pop)
    i.circ_buf_push                          0x0800345c   Section        0  circ_buf.o(i.circ_buf_push)
    i.circ_buf_write                         0x080034b8   Section        0  circ_buf.o(i.circ_buf_write)
    i.close_bin                              0x080034e6   Section        0  file_stream.o(i.close_bin)
    close_bin                                0x080034e7   Thumb Code     4  file_stream.o(i.close_bin)
    i.close_hex                              0x080034ea   Section        0  file_stream.o(i.close_hex)
    close_hex                                0x080034eb   Thumb Code     4  file_stream.o(i.close_hex)
    i.config_get_auto_rst                    0x080034ee   Section        0  settings_rom_stub.o(i.config_get_auto_rst)
    i.config_get_automation_allowed          0x080034f2   Section        0  settings_rom_stub.o(i.config_get_automation_allowed)
    i.config_get_detect_incompatible_target  0x080034f6   Section        0  settings_rom_stub.o(i.config_get_detect_incompatible_target)
    i.config_get_overflow_detect             0x080034fa   Section        0  settings_rom_stub.o(i.config_get_overflow_detect)
    i.config_init                            0x08003500   Section        0  settings.o(i.config_init)
    i.config_ram_add_hexdump                 0x08003598   Section        0  settings.o(i.config_ram_add_hexdump)
    i.config_ram_clear_assert                0x080035bc   Section        0  settings.o(i.config_ram_clear_assert)
    i.config_ram_get_assert                  0x080035d8   Section        0  settings.o(i.config_ram_get_assert)
    i.config_ram_get_hexdumps                0x08003644   Section        0  settings.o(i.config_ram_get_hexdumps)
    i.config_ram_get_initial_hold_in_bl      0x08003660   Section        0  settings.o(i.config_ram_get_initial_hold_in_bl)
    i.config_ram_get_page_erase              0x08003670   Section        0  settings.o(i.config_ram_get_page_erase)
    i.config_ram_set_assert                  0x08003684   Section        0  settings.o(i.config_ram_set_assert)
    i.config_ram_set_disable_msd             0x080036c8   Section        0  settings.o(i.config_ram_set_disable_msd)
    i.config_ram_set_page_erase              0x080036d4   Section        0  settings.o(i.config_ram_set_page_erase)
    i.config_rom_init                        0x080036e0   Section        0  settings_rom_stub.o(i.config_rom_init)
    i.config_set_auto_rst                    0x080036e2   Section        0  settings_rom_stub.o(i.config_set_auto_rst)
    i.config_set_automation_allowed          0x080036e4   Section        0  settings_rom_stub.o(i.config_set_automation_allowed)
    i.config_set_detect_incompatible_target  0x080036e6   Section        0  settings_rom_stub.o(i.config_set_detect_incompatible_target)
    i.config_set_overflow_detect             0x080036e8   Section        0  settings_rom_stub.o(i.config_set_overflow_detect)
    i.crc32                                  0x080036ec   Section        0  crc32.o(i.crc32)
    i.detect_bin                             0x0800373c   Section        0  file_stream.o(i.detect_bin)
    detect_bin                               0x0800373d   Thumb Code    18  file_stream.o(i.detect_bin)
    i.detect_hex                             0x0800374e   Section        0  file_stream.o(i.detect_hex)
    detect_hex                               0x0800374f   Thumb Code    14  file_stream.o(i.detect_hex)
    i.erase_chip                             0x0800375c   Section        0  iap_flash_intf.o(i.erase_chip)
    erase_chip                               0x0800375d   Thumb Code    86  iap_flash_intf.o(i.erase_chip)
    i.erase_sector                           0x080037c8   Section        0  iap_flash_intf.o(i.erase_sector)
    erase_sector                             0x080037c9   Thumb Code   140  iap_flash_intf.o(i.erase_sector)
    i.erase_sector_size                      0x0800386c   Section        0  iap_flash_intf.o(i.erase_sector_size)
    erase_sector_size                        0x0800386d   Thumb Code     6  iap_flash_intf.o(i.erase_sector_size)
    i.error_get_string                       0x08003874   Section        0  error.o(i.error_get_string)
    i.error_get_type                         0x080038a4   Section        0  error.o(i.error_get_type)
    i.expand_info                            0x080038b8   Section        0  vfs_user.o(i.expand_info)
    expand_info                              0x080038b9   Thumb Code   234  vfs_user.o(i.expand_info)
    i.expand_string_in_region                0x080039ec   Section        0  vfs_user.o(i.expand_string_in_region)
    i.file_change_cb_stub                    0x08003a36   Section        0  virtual_fs.o(i.file_change_cb_stub)
    file_change_cb_stub                      0x08003a37   Thumb Code     2  virtual_fs.o(i.file_change_cb_stub)
    i.file_change_handler                    0x08003a38   Section        0  vfs_manager.o(i.file_change_handler)
    file_change_handler                      0x08003a39   Thumb Code   194  vfs_manager.o(i.file_change_handler)
    i.file_data_handler                      0x08003b08   Section        0  vfs_manager.o(i.file_data_handler)
    file_data_handler                        0x08003b09   Thumb Code   122  vfs_manager.o(i.file_data_handler)
    i.filename_valid                         0x08003b88   Section        0  virtual_fs.o(i.filename_valid)
    i.flash_decoder_close                    0x08003c00   Section        0  flash_decoder.o(i.flash_decoder_close)
    i.flash_decoder_detect_type              0x08003c44   Section        0  flash_decoder.o(i.flash_decoder_detect_type)
    i.flash_decoder_get_flash                0x08003cb4   Section        0  flash_decoder.o(i.flash_decoder_get_flash)
    i.flash_decoder_is_at_end                0x08003d40   Section        0  flash_decoder.o(i.flash_decoder_is_at_end)
    flash_decoder_is_at_end                  0x08003d41   Thumb Code    88  flash_decoder.o(i.flash_decoder_is_at_end)
    i.flash_decoder_open                     0x08003da8   Section        0  flash_decoder.o(i.flash_decoder_open)
    i.flash_decoder_validate_target_image    0x08003dec   Section        0  flash_decoder.o(i.flash_decoder_validate_target_image)
    i.flash_decoder_write                    0x08003df0   Section        0  flash_decoder.o(i.flash_decoder_write)
    i.flash_erase_sector                     0x08003f3c   Section        0  flash_hal.o(i.flash_erase_sector)
    i.flash_is_readable                      0x08003f4e   Section        0  flash_hal.o(i.flash_is_readable)
    i.flash_manager_data                     0x08003f70   Section        0  flash_manager.o(i.flash_manager_data)
    i.flash_manager_init                     0x0800407c   Section        0  flash_manager.o(i.flash_manager_init)
    i.flash_manager_uninit                   0x0800410c   Section        0  flash_manager.o(i.flash_manager_uninit)
    i.flash_program_page                     0x08004174   Section        0  flash_hal.o(i.flash_program_page)
    i.flush_current_block                    0x08004188   Section        0  flash_manager.o(i.flush_current_block)
    flush_current_block                      0x08004189   Thumb Code    58  flash_manager.o(i.flush_current_block)
    i.get_board_id                           0x080041cc   Section        0  target_board.o(i.get_board_id)
    i.get_family_id                          0x080041f0   Section        0  target_board.o(i.get_family_id)
    i.get_file_size                          0x08004214   Section        0  vfs_user.o(i.get_file_size)
    get_file_size                            0x08004215   Thumb Code    10  vfs_user.o(i.get_file_size)
    i.gpio_get_reset_btn_fwrd                0x0800421e   Section        0  gpio.o(i.gpio_get_reset_btn_fwrd)
    i.gpio_get_reset_btn_no_fwrd             0x08004224   Section        0  gpio.o(i.gpio_get_reset_btn_no_fwrd)
    i.gpio_init                              0x08004234   Section        0  gpio.o(i.gpio_init)
    i.gpio_set_cdc_led                       0x080043a0   Section        0  gpio.o(i.gpio_set_cdc_led)
    i.gpio_set_hid_led                       0x080043b8   Section        0  gpio.o(i.gpio_set_hid_led)
    i.gpio_set_msc_led                       0x080043d0   Section        0  gpio.o(i.gpio_set_msc_led)
    i.hex32_field_in_region                  0x080043e8   Section        0  vfs_user.o(i.hex32_field_in_region)
    i.hex_to_ascii                           0x0800442c   Section        0  info.o(i.hex_to_ascii)
    hex_to_ascii                             0x0800442d   Thumb Code    12  info.o(i.hex_to_ascii)
    i.info_crc_compute                       0x08004438   Section        0  info.o(i.info_crc_compute)
    i.info_get_board_id                      0x080044a8   Section        0  info.o(i.info_get_board_id)
    i.info_get_bootloader_present            0x080044b0   Section        0  info.o(i.info_get_bootloader_present)
    i.info_get_crc_bootloader                0x080044e8   Section        0  info.o(i.info_get_crc_bootloader)
    i.info_get_crc_interface                 0x080044f4   Section        0  info.o(i.info_get_crc_interface)
    i.info_get_hic_id                        0x08004500   Section        0  info.o(i.info_get_hic_id)
    i.info_get_host_id                       0x08004508   Section        0  info.o(i.info_get_host_id)
    i.info_get_interface_present             0x08004510   Section        0  info.o(i.info_get_interface_present)
    i.info_get_interface_version             0x08004548   Section        0  info.o(i.info_get_interface_version)
    i.info_get_mac                           0x0800455c   Section        0  info.o(i.info_get_mac)
    i.info_get_target_id                     0x08004564   Section        0  info.o(i.info_get_target_id)
    i.info_get_unique_id                     0x0800456c   Section        0  info.o(i.info_get_unique_id)
    i.info_get_unique_id_string_descriptor   0x08004574   Section        0  info.o(i.info_get_unique_id_string_descriptor)
    i.info_get_version                       0x0800457c   Section        0  info.o(i.info_get_version)
    i.info_init                              0x08004584   Section        0  info.o(i.info_init)
    i.init                                   0x08004614   Section        0  iap_flash_intf.o(i.init)
    init                                     0x08004615   Thumb Code    76  iap_flash_intf.o(i.init)
    i.intercept_page_write                   0x08004670   Section        0  iap_flash_intf.o(i.intercept_page_write)
    intercept_page_write                     0x08004671   Thumb Code    46  iap_flash_intf.o(i.intercept_page_write)
    i.main                                   0x080046b4   Section        0  main_bootloader.o(i.main)
    i.main_blink_msc_led                     0x08004710   Section        0  main_bootloader.o(i.main_blink_msc_led)
    i.main_task                              0x08004720   Section        0  main_bootloader.o(i.main_task)
    i.open_bin                               0x08004848   Section        0  file_stream.o(i.open_bin)
    open_bin                                 0x08004849   Thumb Code     4  file_stream.o(i.open_bin)
    i.open_hex                               0x0800484c   Section        0  file_stream.o(i.open_hex)
    open_hex                                 0x0800484d   Thumb Code    28  file_stream.o(i.open_hex)
    i.osDelay                                0x08004868   Section        0  cmsis_os2_port.o(i.osDelay)
    i.osKernelInitialize                     0x08004872   Section        0  cmsis_os2_port.o(i.osKernelInitialize)
    i.osKernelStart                          0x0800487c   Section        0  cmsis_os2_port.o(i.osKernelStart)
    i.osMutexAcquire                         0x08004886   Section        0  cmsis_os2_port.o(i.osMutexAcquire)
    i.osMutexNew                             0x0800488a   Section        0  cmsis_os2_port.o(i.osMutexNew)
    i.osMutexRelease                         0x0800488e   Section        0  cmsis_os2_port.o(i.osMutexRelease)
    i.osThreadFlagsSet                       0x08004892   Section        0  cmsis_os2_port.o(i.osThreadFlagsSet)
    i.osThreadFlagsWait                      0x080048a0   Section        0  cmsis_os2_port.o(i.osThreadFlagsWait)
    i.osThreadGetId                          0x080048a4   Section        0  cmsis_os2_port.o(i.osThreadGetId)
    i.osThreadNew                            0x080048a8   Section        0  cmsis_os2_port.o(i.osThreadNew)
    i.osTimerNew                             0x080048b2   Section        0  cmsis_os2_port.o(i.osTimerNew)
    i.osTimerStart                           0x080048bc   Section        0  cmsis_os2_port.o(i.osTimerStart)
    i.output_clock_enable                    0x080048c8   Section        0  gpio.o(i.output_clock_enable)
    output_clock_enable                      0x080048c9   Thumb Code   182  gpio.o(i.output_clock_enable)
    i.parse_hex_blob                         0x0800499c   Section        0  intelhex.o(i.parse_hex_blob)
    i.program_page                           0x08004c14   Section        0  iap_flash_intf.o(i.program_page)
    program_page                             0x08004c15   Thumb Code   258  iap_flash_intf.o(i.program_page)
    i.program_page_min_size                  0x08004d2c   Section        0  iap_flash_intf.o(i.program_page_min_size)
    program_page_min_size                    0x08004d2d   Thumb Code     6  iap_flash_intf.o(i.program_page_min_size)
    i.read_dir                               0x08004d34   Section        0  virtual_fs.o(i.read_dir)
    read_dir                                 0x08004d35   Thumb Code    66  virtual_fs.o(i.read_dir)
    i.read_fat                               0x08004d88   Section        0  virtual_fs.o(i.read_fat)
    read_fat                                 0x08004d89   Thumb Code    28  virtual_fs.o(i.read_fat)
    i.read_file_assert_txt                   0x08004da8   Section        0  vfs_user.o(i.read_file_assert_txt)
    read_file_assert_txt                     0x08004da9   Thumb Code   246  vfs_user.o(i.read_file_assert_txt)
    i.read_file_details_txt                  0x08004efc   Section        0  vfs_user.o(i.read_file_details_txt)
    read_file_details_txt                    0x08004efd   Thumb Code    18  vfs_user.o(i.read_file_details_txt)
    i.read_file_fail_txt                     0x08004f10   Section        0  vfs_user.o(i.read_file_fail_txt)
    read_file_fail_txt                       0x08004f11   Thumb Code   184  vfs_user.o(i.read_file_fail_txt)
    i.read_file_mbed_htm                     0x08004fe4   Section        0  vfs_user.o(i.read_file_mbed_htm)
    read_file_mbed_htm                       0x08004fe5   Thumb Code    72  vfs_user.o(i.read_file_mbed_htm)
    i.read_mbr                               0x08005058   Section        0  virtual_fs.o(i.read_mbr)
    read_mbr                                 0x08005059   Thumb Code    28  virtual_fs.o(i.read_mbr)
    i.read_unique_id                         0x08005078   Section        0  read_uid.o(i.read_unique_id)
    i.read_zero                              0x08005098   Section        0  virtual_fs.o(i.read_zero)
    read_zero                                0x08005099   Thumb Code    16  virtual_fs.o(i.read_zero)
    i.ready_for_state_change                 0x080050a8   Section        0  vfs_manager.o(i.ready_for_state_change)
    ready_for_state_change                   0x080050a9   Thumb Code   146  vfs_manager.o(i.ready_for_state_change)
    i.reflect                                0x0800514c   Section        0  crc32.o(i.reflect)
    reflect                                  0x0800514d   Thumb Code    48  crc32.o(i.reflect)
    i.reset_button_pressed                   0x0800517c   Section        0  main_bootloader.o(i.reset_button_pressed)
    i.reset_hex_parser                       0x08005190   Section        0  intelhex.o(i.reset_hex_parser)
    i.sdk_init                               0x080051b8   Section        0  sdk.o(i.sdk_init)
    i.setting_in_region                      0x0800524c   Section        0  vfs_user.o(i.setting_in_region)
    i.setup_basics                           0x0800526c   Section        0  info.o(i.setup_basics)
    setup_basics                             0x0800526d   Thumb Code   232  info.o(i.setup_basics)
    i.setup_next_sector                      0x0800535c   Section        0  flash_manager.o(i.setup_next_sector)
    setup_next_sector                        0x0800535d   Thumb Code   224  flash_manager.o(i.setup_next_sector)
    i.stat_enque                             0x0800544c   Section        0  usbd_stm32f103.o(i.stat_enque)
    stat_enque                               0x0800544d   Thumb Code    38  usbd_stm32f103.o(i.stat_enque)
    i.stream_close                           0x0800547c   Section        0  file_stream.o(i.stream_close)
    i.stream_open                            0x080054b4   Section        0  file_stream.o(i.stream_open)
    i.stream_start_identify                  0x08005514   Section        0  file_stream.o(i.stream_start_identify)
    i.stream_thread_assert                   0x08005544   Section        0  file_stream.o(i.stream_thread_assert)
    stream_thread_assert                     0x08005545   Thumb Code    32  file_stream.o(i.stream_thread_assert)
    i.stream_type_from_name                  0x08005570   Section        0  file_stream.o(i.stream_type_from_name)
    i.stream_write                           0x080055a0   Section        0  file_stream.o(i.stream_write)
    i.string_field_in_region                 0x08005608   Section        0  vfs_user.o(i.string_field_in_region)
    i.sync_assert_usb_thread                 0x08005668   Section        0  vfs_manager.o(i.sync_assert_usb_thread)
    sync_assert_usb_thread                   0x08005669   Thumb Code    34  vfs_manager.o(i.sync_assert_usb_thread)
    i.sync_lock                              0x08005698   Section        0  vfs_manager.o(i.sync_lock)
    sync_lock                                0x08005699   Thumb Code    10  vfs_manager.o(i.sync_lock)
    i.sync_unlock                            0x080056a8   Section        0  vfs_manager.o(i.sync_unlock)
    sync_unlock                              0x080056a9   Thumb Code     8  vfs_manager.o(i.sync_unlock)
    i.sysTickEvtSet                          0x080056b4   Section        0  systick_handler.o(i.sysTickEvtSet)
    i.sysTickEvtWaitOr                       0x080056c8   Section        0  systick_handler.o(i.sysTickEvtWaitOr)
    i.sysTickFreqSet                         0x080056e4   Section        0  systick_handler.o(i.sysTickFreqSet)
    i.sysTickInit                            0x080056f0   Section        0  systick_handler.o(i.sysTickInit)
    i.sysTickRegCallback                     0x08005724   Section        0  systick_handler.o(i.sysTickRegCallback)
    i.sysTickRegMainFunc                     0x08005730   Section        0  systick_handler.o(i.sysTickRegMainFunc)
    i.sysTickStartMain                       0x0800573c   Section        0  systick_handler.o(i.sysTickStartMain)
    i.sysTickWait                            0x08005750   Section        0  systick_handler.o(i.sysTickWait)
    i.target_flash_busy                      0x08005760   Section        0  iap_flash_intf.o(i.target_flash_busy)
    target_flash_busy                        0x08005761   Thumb Code    12  iap_flash_intf.o(i.target_flash_busy)
    i.test_range                             0x08005770   Section        0  validation.o(i.test_range)
    test_range                               0x08005771   Thumb Code    16  validation.o(i.test_range)
    i.timer_task_30mS                        0x08005780   Section        0  main_bootloader.o(i.timer_task_30mS)
    i.transfer_stream_data                   0x080057b4   Section        0  vfs_manager.o(i.transfer_stream_data)
    transfer_stream_data                     0x080057b5   Thumb Code   142  vfs_manager.o(i.transfer_stream_data)
    i.transfer_stream_open                   0x0800584c   Section        0  vfs_manager.o(i.transfer_stream_open)
    transfer_stream_open                     0x0800584d   Thumb Code   112  vfs_manager.o(i.transfer_stream_open)
    i.transfer_update_file_info              0x080058c4   Section        0  vfs_manager.o(i.transfer_update_file_info)
    transfer_update_file_info                0x080058c5   Thumb Code   104  vfs_manager.o(i.transfer_update_file_info)
    i.transfer_update_state                  0x08005938   Section        0  vfs_manager.o(i.transfer_update_state)
    transfer_update_state                    0x08005939   Thumb Code   294  vfs_manager.o(i.transfer_update_state)
    i.uint32_field_in_region                 0x08005a70   Section        0  vfs_user.o(i.uint32_field_in_region)
    i.uninit                                 0x08005aa4   Section        0  iap_flash_intf.o(i.uninit)
    uninit                                   0x08005aa5   Thumb Code    40  iap_flash_intf.o(i.uninit)
    i.update_details_txt_file                0x08005ad8   Section        0  vfs_user.o(i.update_details_txt_file)
    update_details_txt_file                  0x08005ad9   Thumb Code   406  vfs_user.o(i.update_details_txt_file)
    i.usbd_class_init                        0x08005d90   Section        0  usb_config.o(i.usbd_class_init)
    i.usbd_configured                        0x08005dfc   Section        0  usbd_core.o(i.usbd_configured)
    i.usbd_connect                           0x08005e0c   Section        0  usbd_core.o(i.usbd_connect)
    i.usbd_init                              0x08005e10   Section        0  usbd_core.o(i.usbd_init)
    i.usbd_msc_init                          0x08005e2c   Section        0  vfs_manager.o(i.usbd_msc_init)
    i.usbd_msc_read_sect                     0x08005e58   Section        0  vfs_manager.o(i.usbd_msc_read_sect)
    i.usbd_msc_start_stop                    0x08005e88   Section        0  usbd_msc.o(i.usbd_msc_start_stop)
    i.usbd_msc_write_sect                    0x08005e8c   Section        0  vfs_manager.o(i.usbd_msc_write_sect)
    i.usbd_reset_core                        0x08005ee8   Section        0  usbd_core.o(i.usbd_reset_core)
    i.util_assert_clear                      0x08005f0c   Section        0  util.o(i.util_assert_clear)
    i.util_write_hex32                       0x08005f1e   Section        0  util.o(i.util_write_hex32)
    i.util_write_hex8                        0x08005f50   Section        0  util.o(i.util_write_hex8)
    i.util_write_in_region                   0x08005f6c   Section        0  util.o(i.util_write_in_region)
    i.util_write_string_in_region            0x08005fb4   Section        0  util.o(i.util_write_string_in_region)
    i.util_write_uint32                      0x08005fdc   Section        0  util.o(i.util_write_uint32)
    i.util_write_uint32_zp                   0x08006030   Section        0  util.o(i.util_write_uint32_zp)
    i.validate_bin_nvic                      0x08006060   Section        0  validation.o(i.validate_bin_nvic)
    i.validate_bin_nvic_base                 0x08006084   Section        0  validation.o(i.validate_bin_nvic_base)
    i.validate_hexfile                       0x08006100   Section        0  validation.o(i.validate_hexfile)
    i.vfs_create_file                        0x08006134   Section        0  virtual_fs.o(i.vfs_create_file)
    i.vfs_file_get_attr                      0x08006260   Section        0  virtual_fs.o(i.vfs_file_get_attr)
    i.vfs_file_get_size                      0x08006264   Section        0  virtual_fs.o(i.vfs_file_get_size)
    i.vfs_file_get_start_sector              0x08006268   Section        0  virtual_fs.o(i.vfs_file_get_start_sector)
    i.vfs_file_set_attr                      0x08006294   Section        0  virtual_fs.o(i.vfs_file_set_attr)
    i.vfs_get_total_size                     0x08006298   Section        0  virtual_fs.o(i.vfs_get_total_size)
    i.vfs_init                               0x080062d0   Section        0  virtual_fs.o(i.vfs_init)
    i.vfs_mngr_fs_remount                    0x0800643c   Section        0  vfs_manager.o(i.vfs_mngr_fs_remount)
    i.vfs_mngr_get_transfer_status           0x08006460   Section        0  vfs_manager.o(i.vfs_mngr_get_transfer_status)
    i.vfs_mngr_init                          0x08006470   Section        0  vfs_manager.o(i.vfs_mngr_init)
    i.vfs_mngr_periodic                      0x080064a0   Section        0  vfs_manager.o(i.vfs_mngr_periodic)
    i.vfs_read                               0x08006554   Section        0  virtual_fs.o(i.vfs_read)
    i.vfs_set_file_change_callback           0x080065b8   Section        0  virtual_fs.o(i.vfs_set_file_change_callback)
    i.vfs_user_build_filesystem              0x080065c4   Section        0  vfs_user.o(i.vfs_user_build_filesystem)
    i.vfs_user_build_filesystem_hook         0x080066ac   Section        0  vfs_user.o(i.vfs_user_build_filesystem_hook)
    i.vfs_user_disconnecting                 0x080066b0   Section        0  vfs_user.o(i.vfs_user_disconnecting)
    i.vfs_user_file_change_handler           0x080066cc   Section        0  vfs_user.o(i.vfs_user_file_change_handler)
    i.vfs_user_file_change_handler_hook      0x08006800   Section        0  vfs_user.o(i.vfs_user_file_change_handler_hook)
    i.vfs_user_magic_file_hook               0x08006804   Section        0  vfs_user.o(i.vfs_user_magic_file_hook)
    i.vfs_write                              0x08006808   Section        0  virtual_fs.o(i.vfs_write)
    i.write_bin                              0x08006870   Section        0  file_stream.o(i.write_bin)
    write_bin                                0x08006871   Thumb Code   146  file_stream.o(i.write_bin)
    i.write_dir                              0x08006904   Section        0  virtual_fs.o(i.write_dir)
    write_dir                                0x08006905   Thumb Code   182  virtual_fs.o(i.write_dir)
    i.write_fat                              0x080069cc   Section        0  virtual_fs.o(i.write_fat)
    write_fat                                0x080069cd   Thumb Code    40  virtual_fs.o(i.write_fat)
    i.write_hex                              0x080069fc   Section        0  file_stream.o(i.write_hex)
    write_hex                                0x080069fd   Thumb Code   168  file_stream.o(i.write_hex)
    i.write_none                             0x08006aac   Section        0  virtual_fs.o(i.write_none)
    write_none                               0x08006aad   Thumb Code     2  virtual_fs.o(i.write_none)
    .constdata                               0x08006aae   Section        8  stm32f103xb_bl.o(.constdata)
    sectors_info                             0x08006aae   Data           8  stm32f103xb_bl.o(.constdata)
    .constdata                               0x08006ab8   Section      132  stm32f103xb_bl.o(.constdata)
    .constdata                               0x08006b3c   Section      160  error.o(.constdata)
    error_message                            0x08006b3c   Data         160  error.o(.constdata)
    .constdata                               0x08006bdc   Section       17  util.o(.constdata)
    nybble_chars                             0x08006bdc   Data          17  util.o(.constdata)
    .constdata                               0x08006bf0   Section        4  flash_intf.o(.constdata)
    .constdata                               0x08006bf4   Section       36  iap_flash_intf.o(.constdata)
    flash_intf                               0x08006bf4   Data          36  iap_flash_intf.o(.constdata)
    .constdata                               0x08006c18   Section        4  iap_flash_intf.o(.constdata)
    .constdata                               0x08006c1c   Section       40  vfs_manager.o(.constdata)
    default_transfer_state                   0x08006c1c   Data          40  vfs_manager.o(.constdata)
    .constdata                               0x08006c44   Section       11  vfs_user.o(.constdata)
    daplink_mode_file_name                   0x08006c44   Data          11  vfs_user.o(.constdata)
    .constdata                               0x08006c50   Section      171  vfs_user.o(.constdata)
    assert_file                              0x08006c50   Data          11  vfs_user.o(.constdata)
    s_magic_file_info                        0x08006c5c   Data         128  vfs_user.o(.constdata)
    error_type_names                         0x08006cdc   Data          20  vfs_user.o(.constdata)
    .constdata                               0x08006cfc   Section      624  virtual_fs.o(.constdata)
    mbr_tmpl                                 0x08006cfc   Data         512  virtual_fs.o(.constdata)
    root_dir_entry                           0x08006f2c   Data          32  virtual_fs.o(.constdata)
    dir_entry_tmpl                           0x08006f4c   Data          32  virtual_fs.o(.constdata)
    .constdata                               0x08006f6c   Section       16  system_stm32f1xx.o(.constdata)
    .constdata                               0x08006f7c   Section        1  usb_config.o(.constdata)
    .constdata                               0x08006f7d   Section        1  usb_config.o(.constdata)
    .constdata                               0x08006f7e   Section        1  usb_config.o(.constdata)
    .constdata                               0x08006f7f   Section        1  usb_config.o(.constdata)
    .constdata                               0x08006f80   Section        1  usb_config.o(.constdata)
    .constdata                               0x08006f81   Section        1  usb_config.o(.constdata)
    .constdata                               0x08006f82   Section        4  usb_config.o(.constdata)
    .constdata                               0x08006f86   Section        2  usb_config.o(.constdata)
    .constdata                               0x08006f88   Section        4  usb_config.o(.constdata)
    .constdata                               0x08006f8c   Section        4  usb_config.o(.constdata)
    .constdata                               0x08006f90   Section        4  usb_config.o(.constdata)
    .constdata                               0x08006f94   Section        4  usb_config.o(.constdata)
    .constdata                               0x08006f98   Section        4  usb_config.o(.constdata)
    .constdata                               0x08006f9c   Section       64  usb_config.o(.constdata)
    .constdata                               0x08006fdc   Section        4  usb_config.o(.constdata)
    .constdata                               0x08006fe0   Section        4  usb_config.o(.constdata)
    .constdata                               0x08006fe4   Section        4  usb_config.o(.constdata)
    .constdata                               0x08006fe8   Section       18  usb_config.o(.constdata)
    .constdata                               0x08006ffa   Section        1  usb_config.o(.constdata)
    .constdata                               0x08006ffb   Section        1  usb_config.o(.constdata)
    .constdata                               0x08006ffc   Section        1  usb_config.o(.constdata)
    .constdata                               0x08006ffe   Section       90  usb_config.o(.constdata)
    .conststring                             0x08007058   Section     1973  error.o(.conststring)
    .conststring                             0x08007810   Section      602  vfs_user.o(.conststring)
    .conststring                             0x08007a6c   Section       28  usb_config.o(.conststring)
    .data                                    0x20000000   Section      428  stm32f103xb_bl.o(.data)
    .data                                    0x200001ac   Section        4  stm32f103xb_bl.o(.data)
    .data                                    0x200001b0   Section       40  error.o(.data)
    error_type                               0x200001b0   Data          40  error.o(.data)
    .data                                    0x200001d8   Section       31  info.o(.data)
    hic_id                                   0x200001d8   Data           4  info.o(.data)
    crc_bootloader                           0x200001dc   Data           4  info.o(.data)
    crc_interface                            0x200001e0   Data           4  info.o(.data)
    crc_config_user                          0x200001e4   Data           4  info.o(.data)
    string_board_id                          0x200001e8   Data           5  info.o(.data)
    string_family_id                         0x200001ed   Data           5  info.o(.data)
    string_version                           0x200001f2   Data           5  info.o(.data)
    .data                                    0x200001f8   Section       16  main_bootloader.o(.data)
    msc_led_usb_activity                     0x200001f8   Data           1  main_bootloader.o(.data)
    msc_led_state                            0x200001f9   Data           1  main_bootloader.o(.data)
    usb_busy                                 0x200001fb   Data           1  main_bootloader.o(.data)
    i                                        0x200001fc   Data           4  main_bootloader.o(.data)
    usb_busy_count                           0x20000204   Data           4  main_bootloader.o(.data)
    .data                                    0x20000208   Section       44  file_stream.o(.data)
    state                                    0x20000208   Data           1  file_stream.o(.data)
    current_stream                           0x2000020c   Data           4  file_stream.o(.data)
    stream_thread_tid                        0x20000210   Data           4  file_stream.o(.data)
    .data                                    0x20000234   Section       20  flash_decoder.o(.data)
    state                                    0x20000234   Data           1  flash_decoder.o(.data)
    flash_type                               0x20000235   Data           1  flash_decoder.o(.data)
    flash_initialized                        0x20000236   Data           1  flash_decoder.o(.data)
    initial_addr_set                         0x20000237   Data           1  flash_decoder.o(.data)
    flash_type_target_bin                    0x20000238   Data           1  flash_decoder.o(.data)
    flash_buf_pos                            0x2000023c   Data           4  flash_decoder.o(.data)
    initial_addr                             0x20000240   Data           4  flash_decoder.o(.data)
    current_addr                             0x20000244   Data           4  flash_decoder.o(.data)
    .data                                    0x20000248   Section       28  flash_manager.o(.data)
    page_erase_enabled                       0x20000248   Data           1  flash_manager.o(.data)
    state                                    0x20000249   Data           1  flash_manager.o(.data)
    buf_empty                                0x2000024a   Data           1  flash_manager.o(.data)
    current_sector_valid                     0x2000024b   Data           1  flash_manager.o(.data)
    current_write_block_addr                 0x2000024c   Data           4  flash_manager.o(.data)
    current_write_block_size                 0x20000250   Data           4  flash_manager.o(.data)
    current_sector_addr                      0x20000254   Data           4  flash_manager.o(.data)
    current_sector_size                      0x20000258   Data           4  flash_manager.o(.data)
    last_addr                                0x2000025c   Data           4  flash_manager.o(.data)
    intf                                     0x20000260   Data           4  flash_manager.o(.data)
    .data                                    0x20000264   Section       28  iap_flash_intf.o(.data)
    state                                    0x20000264   Data           1  iap_flash_intf.o(.data)
    update_complete                          0x20000265   Data           1  iap_flash_intf.o(.data)
    mass_erase_performed                     0x20000266   Data           1  iap_flash_intf.o(.data)
    current_sector_set                       0x20000267   Data           1  iap_flash_intf.o(.data)
    current_page_set                         0x20000268   Data           1  iap_flash_intf.o(.data)
    current_sector                           0x2000026c   Data           4  iap_flash_intf.o(.data)
    current_sector_size                      0x20000270   Data           4  iap_flash_intf.o(.data)
    current_page                             0x20000274   Data           4  iap_flash_intf.o(.data)
    current_page_write_size                  0x20000278   Data           4  iap_flash_intf.o(.data)
    crc                                      0x2000027c   Data           4  iap_flash_intf.o(.data)
    .data                                    0x20000280   Section       16  intelhex.o(.data)
    low_nibble                               0x20000280   Data           1  intelhex.o(.data)
    idx                                      0x20000281   Data           1  intelhex.o(.data)
    record_processed                         0x20000282   Data           1  intelhex.o(.data)
    load_unaligned_record                    0x20000283   Data           1  intelhex.o(.data)
    skip_until_aligned                       0x20000284   Data           1  intelhex.o(.data)
    binary_version                           0x20000286   Data           2  intelhex.o(.data)
    next_address_to_write                    0x2000028c   Data           4  intelhex.o(.data)
    .data                                    0x20000290   Section       16  vfs_manager.o(.data)
    fail_reason                              0x20000290   Data           1  vfs_manager.o(.data)
    vfs_state                                0x20000291   Data           1  vfs_manager.o(.data)
    vfs_state_next                           0x20000292   Data           1  vfs_manager.o(.data)
    sync_thread                              0x20000294   Data           4  vfs_manager.o(.data)
    time_usb_idle                            0x20000298   Data           4  vfs_manager.o(.data)
    sync_mutex                               0x2000029c   Data           4  vfs_manager.o(.data)
    .data                                    0x200002a0   Section        8  vfs_user.o(.data)
    assert_source                            0x200002a0   Data           1  vfs_user.o(.data)
    assert_line                              0x200002a2   Data           2  vfs_user.o(.data)
    remount_count                            0x200002a4   Data           4  vfs_user.o(.data)
    .data                                    0x200002a8   Section       24  virtual_fs.o(.data)
    .data                                    0x200002c0   Section        4  sdk.o(.data)
    .data                                    0x200002c4   Section        4  system_stm32f1xx.o(.data)
    .data                                    0x200002c8   Section        2  usb_config.o(.data)
    .data                                    0x200002cc   Section        4  usb_config.o(.data)
    .data                                    0x200002d0   Section        2  usb_config.o(.data)
    .data                                    0x200002d2   Section        1  usb_config.o(.data)
    .data                                    0x200002d4   Section       20  usbd_stm32f103.o(.data)
    .data                                    0x200002e8   Section       24  systick_handler.o(.data)
    tick_counter                             0x200002e8   Data           4  systick_handler.o(.data)
    event_flags                              0x200002ec   Data           4  systick_handler.o(.data)
    wait_counter                             0x200002f0   Data           4  systick_handler.o(.data)
    sysTickCb                                0x200002f4   Data           4  systick_handler.o(.data)
    tickFreq                                 0x200002f8   Data           4  systick_handler.o(.data)
    mainFuncCb                               0x200002fc   Data           4  systick_handler.o(.data)
    .data                                    0x20000300   Section       36  usbd_core.o(.data)
    .data                                    0x20000324   Section       52  usbd_msc.o(.data)
    .data                                    0x20000358   Section        4  usbd_msc.o(.data)
    .bss                                     0x2000035c   Section      269  info.o(.bss)
    host_id                                  0x2000035c   Data          16  info.o(.bss)
    target_id                                0x2000036c   Data          16  info.o(.bss)
    string_unique_id                         0x2000037c   Data          49  info.o(.bss)
    string_mac                               0x200003ad   Data          13  info.o(.bss)
    string_host_id                           0x200003ba   Data          33  info.o(.bss)
    string_target_id                         0x200003db   Data          33  info.o(.bss)
    string_hic_id                            0x200003fc   Data           9  info.o(.bss)
    usb_desc_unique_id                       0x20000405   Data         100  info.o(.bss)
    .bss                                     0x2000046c   Section      260  file_stream.o(.bss)
    shared_state                             0x2000046c   Data         260  file_stream.o(.bss)
    .bss                                     0x20000570   Section       48  flash_decoder.o(.bss)
    flash_buf                                0x20000570   Data          48  flash_decoder.o(.bss)
    .bss                                     0x200005a0   Section     1024  flash_manager.o(.bss)
    buf                                      0x200005a0   Data        1024  flash_manager.o(.bss)
    .bss                                     0x200009a0   Section     1024  iap_flash_intf.o(.bss)
    sector_buf                               0x200009a0   Data        1024  iap_flash_intf.o(.bss)
    .bss                                     0x20000da0   Section       37  intelhex.o(.bss)
    line                                     0x20000da0   Data          37  intelhex.o(.bss)
    .bss                                     0x20000dc8   Section      552  vfs_manager.o(.bss)
    file_transfer_state                      0x20000fc8   Data          40  vfs_manager.o(.bss)
    .bss                                     0x20000ff0   Section       65  vfs_user.o(.bss)
    assert_buf                               0x20000ff0   Data          65  vfs_user.o(.bss)
    .bss                                     0x20001034   Section     2240  virtual_fs.o(.bss)
    .bss                                     0x200018f4   Section       60  gpio.o(.bss)
    timer                                    0x200018f4   Data          60  gpio.o(.bss)
    .bss                                     0x20001930   Section       60  sdk.o(.bss)
    .bss                                     0x20001970   Section       32  stm32f1xx_hal_flash.o(.bss)
    .bss                                     0x20001990   Section     1056  uart.o(.bss)
    .bss                                     0x20001db0   Section      200  usb_config.o(.bss)
    .bss                                     0x20001e78   Section       64  usb_config.o(.bss)
    .bss                                     0x20001eb8   Section       64  usb_config.o(.bss)
    .bss                                     0x20001ef8   Section       28  usbd_stm32f103.o(.bss)
    .bss                                     0x20001f14   Section      142  settings.o(.bss)
    config_ram_copy                          0x20001f14   Data         142  settings.o(.bss)
    .bss                                     0x20001fa2   Section       44  usbd_msc.o(.bss)
    .bss                                     0x20001fd0   Section       96  libspace.o(.bss)
    HEAP                                     0x20002030   Section      512  startup_stm32f103xb.o(HEAP)
    Heap_Mem                                 0x20002030   Data         512  startup_stm32f103xb.o(HEAP)
    STACK                                    0x20002230   Section     1024  startup_stm32f103xb.o(STACK)
    Stack_Mem                                0x20002230   Data        1024  startup_stm32f103xb.o(STACK)
    __initial_sp                             0x20002630   Data           0  startup_stm32f103xb.o(STACK)
    cfgram                                   0x20004f00   Section      142  settings.o(cfgram)
    config_ram                               0x20004f00   Data         142  settings.o(cfgram)

    Global Symbols

    Symbol Name                              Value     Ov Type        Size  Object(Section)

    BuildAttributes$$THM_ISAv4$P$D$K$B$S$PE$A:L22UL41UL21$X:L11$S22US41US21$IEEE1$IW$USESV6$~STKCKD$USESV7$~SHL$OTIME$ROPI$EBA8$UX$STANDARDLIB$REQ8$EABIv2 0x00000000   Number         0  anon$$obj.o ABSOLUTE
    __ARM_use_no_argv                        0x00000000   Number         0  main_bootloader.o ABSOLUTE
    USBD_Configure_Event                      - Undefined Weak Reference
    USBD_EndPoint1                            - Undefined Weak Reference
    USBD_EndPoint10                           - Undefined Weak Reference
    USBD_EndPoint11                           - Undefined Weak Reference
    USBD_EndPoint12                           - Undefined Weak Reference
    USBD_EndPoint13                           - Undefined Weak Reference
    USBD_EndPoint14                           - Undefined Weak Reference
    USBD_EndPoint15                           - Undefined Weak Reference
    USBD_EndPoint3                            - Undefined Weak Reference
    USBD_EndPoint4                            - Undefined Weak Reference
    USBD_EndPoint5                            - Undefined Weak Reference
    USBD_EndPoint6                            - Undefined Weak Reference
    USBD_EndPoint7                            - Undefined Weak Reference
    USBD_EndPoint8                            - Undefined Weak Reference
    USBD_EndPoint9                            - Undefined Weak Reference
    USBD_Error_Event                          - Undefined Weak Reference
    USBD_Feature_Event                        - Undefined Weak Reference
    USBD_Interface_Event                      - Undefined Weak Reference
    USBD_Power_Event                          - Undefined Weak Reference
    USBD_Reset_Event                          - Undefined Weak Reference
    USBD_Resume_Event                         - Undefined Weak Reference
    USBD_SOF_Event                            - Undefined Weak Reference
    USBD_Suspend_Event                        - Undefined Weak Reference
    USBD_WakeUp_Event                         - Undefined Weak Reference
    __ARM_exceptions_init                     - Undefined Weak Reference
    __alloca_initialize                       - Undefined Weak Reference
    __arm_fini_                               - Undefined Weak Reference
    __arm_preinit_                            - Undefined Weak Reference
    __cpp_initialize__aeabi_                  - Undefined Weak Reference
    __cxa_finalize                            - Undefined Weak Reference
    __rt_locale                               - Undefined Weak Reference
    __sigvec_lookup                           - Undefined Weak Reference
    _atexit_init                              - Undefined Weak Reference
    _call_atexit_fns                          - Undefined Weak Reference
    _clock_init                               - Undefined Weak Reference
    _fp_trap_init                             - Undefined Weak Reference
    _fp_trap_shutdown                         - Undefined Weak Reference
    _get_lc_collate                           - Undefined Weak Reference
    _get_lc_ctype                             - Undefined Weak Reference
    _get_lc_monetary                          - Undefined Weak Reference
    _get_lc_numeric                           - Undefined Weak Reference
    _get_lc_time                              - Undefined Weak Reference
    _getenv_init                              - Undefined Weak Reference
    _handle_redirection                       - Undefined Weak Reference
    _init_alloc                               - Undefined Weak Reference
    _init_user_alloc                          - Undefined Weak Reference
    _initio                                   - Undefined Weak Reference
    _rand_init                                - Undefined Weak Reference
    _signal_finish                            - Undefined Weak Reference
    _signal_init                              - Undefined Weak Reference
    _terminate_alloc                          - Undefined Weak Reference
    _terminate_user_alloc                     - Undefined Weak Reference
    _terminateio                              - Undefined Weak Reference
    __Vectors_Size                           0x000000ec   Number         0  startup_stm32f103xb.o ABSOLUTE
    __Vectors                                0x08000000   Data           4  startup_stm32f103xb.o(RESET)
    __Vectors_End                            0x080000ec   Data           0  startup_stm32f103xb.o(RESET)
    __main                                   0x080000ed   Thumb Code     8  __main.o(!!!main)
    __scatterload                            0x080000f5   Thumb Code     0  __scatter.o(!!!scatter)
    __scatterload_rt2                        0x080000f5   Thumb Code    44  __scatter.o(!!!scatter)
    __scatterload_rt2_thumb_only             0x080000f5   Thumb Code     0  __scatter.o(!!!scatter)
    __scatterload_null                       0x08000103   Thumb Code     0  __scatter.o(!!!scatter)
    __decompress                             0x08000129   Thumb Code    90  __dczerorl2.o(!!dczerorl2)
    __decompress1                            0x08000129   Thumb Code     0  __dczerorl2.o(!!dczerorl2)
    __scatterload_zeroinit                   0x08000185   Thumb Code    28  __scatter_zi.o(!!handler_zi)
    __rt_lib_init                            0x080001a1   Thumb Code     0  libinit.o(.ARM.Collect$$libinit$$00000000)
    __rt_lib_init_alloca_1                   0x080001a3   Thumb Code     0  libinit2.o(.ARM.Collect$$libinit$$0000002E)
    __rt_lib_init_argv_1                     0x080001a3   Thumb Code     0  libinit2.o(.ARM.Collect$$libinit$$0000002C)
    __rt_lib_init_atexit_1                   0x080001a3   Thumb Code     0  libinit2.o(.ARM.Collect$$libinit$$0000001B)
    __rt_lib_init_clock_1                    0x080001a3   Thumb Code     0  libinit2.o(.ARM.Collect$$libinit$$00000021)
    __rt_lib_init_cpp_1                      0x080001a3   Thumb Code     0  libinit2.o(.ARM.Collect$$libinit$$00000032)
    __rt_lib_init_exceptions_1               0x080001a3   Thumb Code     0  libinit2.o(.ARM.Collect$$libinit$$00000030)
    __rt_lib_init_fp_1                       0x080001a3   Thumb Code     0  libinit2.o(.ARM.Collect$$libinit$$00000002)
    __rt_lib_init_fp_trap_1                  0x080001a3   Thumb Code     0  libinit2.o(.ARM.Collect$$libinit$$0000001F)
    __rt_lib_init_getenv_1                   0x080001a3   Thumb Code     0  libinit2.o(.ARM.Collect$$libinit$$00000023)
    __rt_lib_init_heap_1                     0x080001a3   Thumb Code     0  libinit2.o(.ARM.Collect$$libinit$$0000000A)
    __rt_lib_init_lc_collate_1               0x080001a3   Thumb Code     0  libinit2.o(.ARM.Collect$$libinit$$00000011)
    __rt_lib_init_lc_ctype_1                 0x080001a3   Thumb Code     0  libinit2.o(.ARM.Collect$$libinit$$00000013)
    __rt_lib_init_lc_monetary_1              0x080001a3   Thumb Code     0  libinit2.o(.ARM.Collect$$libinit$$00000015)
    __rt_lib_init_lc_numeric_1               0x080001a3   Thumb Code     0  libinit2.o(.ARM.Collect$$libinit$$00000017)
    __rt_lib_init_lc_time_1                  0x080001a3   Thumb Code     0  libinit2.o(.ARM.Collect$$libinit$$00000019)
    __rt_lib_init_preinit_1                  0x080001a3   Thumb Code     0  libinit2.o(.ARM.Collect$$libinit$$00000004)
    __rt_lib_init_rand_1                     0x080001a3   Thumb Code     0  libinit2.o(.ARM.Collect$$libinit$$0000000E)
    __rt_lib_init_return                     0x080001a3   Thumb Code     0  libinit2.o(.ARM.Collect$$libinit$$00000033)
    __rt_lib_init_signal_1                   0x080001a3   Thumb Code     0  libinit2.o(.ARM.Collect$$libinit$$0000001D)
    __rt_lib_init_stdio_1                    0x080001a3   Thumb Code     0  libinit2.o(.ARM.Collect$$libinit$$00000025)
    __rt_lib_init_user_alloc_1               0x080001a3   Thumb Code     0  libinit2.o(.ARM.Collect$$libinit$$0000000C)
    __rt_lib_shutdown                        0x080001a5   Thumb Code     0  libshutdown.o(.ARM.Collect$$libshutdown$$00000000)
    __rt_lib_shutdown_cpp_1                  0x080001a7   Thumb Code     0  libshutdown2.o(.ARM.Collect$$libshutdown$$00000004)
    __rt_lib_shutdown_fini_1                 0x080001a7   Thumb Code     0  libshutdown2.o(.ARM.Collect$$libshutdown$$00000002)
    __rt_lib_shutdown_fp_trap_1              0x080001a7   Thumb Code     0  libshutdown2.o(.ARM.Collect$$libshutdown$$00000009)
    __rt_lib_shutdown_heap_1                 0x080001a7   Thumb Code     0  libshutdown2.o(.ARM.Collect$$libshutdown$$00000011)
    __rt_lib_shutdown_return                 0x080001a7   Thumb Code     0  libshutdown2.o(.ARM.Collect$$libshutdown$$00000012)
    __rt_lib_shutdown_signal_1               0x080001a7   Thumb Code     0  libshutdown2.o(.ARM.Collect$$libshutdown$$0000000C)
    __rt_lib_shutdown_stdio_1                0x080001a7   Thumb Code     0  libshutdown2.o(.ARM.Collect$$libshutdown$$00000006)
    __rt_lib_shutdown_user_alloc_1           0x080001a7   Thumb Code     0  libshutdown2.o(.ARM.Collect$$libshutdown$$0000000E)
    __rt_entry                               0x080001a9   Thumb Code     0  __rtentry.o(.ARM.Collect$$rtentry$$00000000)
    __rt_entry_presh_1                       0x080001a9   Thumb Code     0  __rtentry2.o(.ARM.Collect$$rtentry$$00000002)
    __rt_entry_sh                            0x080001a9   Thumb Code     0  __rtentry4.o(.ARM.Collect$$rtentry$$00000004)
    __rt_entry_li                            0x080001af   Thumb Code     0  __rtentry2.o(.ARM.Collect$$rtentry$$0000000A)
    __rt_entry_postsh_1                      0x080001af   Thumb Code     0  __rtentry2.o(.ARM.Collect$$rtentry$$00000009)
    __rt_entry_main                          0x080001b3   Thumb Code     0  __rtentry2.o(.ARM.Collect$$rtentry$$0000000D)
    __rt_entry_postli_1                      0x080001b3   Thumb Code     0  __rtentry2.o(.ARM.Collect$$rtentry$$0000000C)
    __rt_exit                                0x080001bb   Thumb Code     0  rtexit.o(.ARM.Collect$$rtexit$$00000000)
    __rt_exit_ls                             0x080001bd   Thumb Code     0  rtexit2.o(.ARM.Collect$$rtexit$$00000003)
    __rt_exit_prels_1                        0x080001bd   Thumb Code     0  rtexit2.o(.ARM.Collect$$rtexit$$00000002)
    __rt_exit_exit                           0x080001c1   Thumb Code     0  rtexit2.o(.ARM.Collect$$rtexit$$00000004)
    modify_stack_pointer_and_start_app       0x080001c9   Thumb Code     4  main_bootloader.o(.emb_text)
    Reset_Handler                            0x080001cd   Thumb Code     8  startup_stm32f103xb.o(.text)
    NMI_Handler                              0x080001d5   Thumb Code     2  startup_stm32f103xb.o(.text)
    MemManage_Handler                        0x080001d9   Thumb Code     2  startup_stm32f103xb.o(.text)
    BusFault_Handler                         0x080001db   Thumb Code     2  startup_stm32f103xb.o(.text)
    UsageFault_Handler                       0x080001dd   Thumb Code     2  startup_stm32f103xb.o(.text)
    SVC_Handler                              0x080001df   Thumb Code     2  startup_stm32f103xb.o(.text)
    DebugMon_Handler                         0x080001e1   Thumb Code     2  startup_stm32f103xb.o(.text)
    PendSV_Handler                           0x080001e3   Thumb Code     2  startup_stm32f103xb.o(.text)
    ADC1_2_IRQHandler                        0x080001e7   Thumb Code     0  startup_stm32f103xb.o(.text)
    CAN1_RX1_IRQHandler                      0x080001e7   Thumb Code     0  startup_stm32f103xb.o(.text)
    CAN1_SCE_IRQHandler                      0x080001e7   Thumb Code     0  startup_stm32f103xb.o(.text)
    DMA1_Channel1_IRQHandler                 0x080001e7   Thumb Code     0  startup_stm32f103xb.o(.text)
    DMA1_Channel2_IRQHandler                 0x080001e7   Thumb Code     0  startup_stm32f103xb.o(.text)
    DMA1_Channel3_IRQHandler                 0x080001e7   Thumb Code     0  startup_stm32f103xb.o(.text)
    DMA1_Channel4_IRQHandler                 0x080001e7   Thumb Code     0  startup_stm32f103xb.o(.text)
    DMA1_Channel5_IRQHandler                 0x080001e7   Thumb Code     0  startup_stm32f103xb.o(.text)
    DMA1_Channel6_IRQHandler                 0x080001e7   Thumb Code     0  startup_stm32f103xb.o(.text)
    DMA1_Channel7_IRQHandler                 0x080001e7   Thumb Code     0  startup_stm32f103xb.o(.text)
    EXTI0_IRQHandler                         0x080001e7   Thumb Code     0  startup_stm32f103xb.o(.text)
    EXTI15_10_IRQHandler                     0x080001e7   Thumb Code     0  startup_stm32f103xb.o(.text)
    EXTI1_IRQHandler                         0x080001e7   Thumb Code     0  startup_stm32f103xb.o(.text)
    EXTI2_IRQHandler                         0x080001e7   Thumb Code     0  startup_stm32f103xb.o(.text)
    EXTI3_IRQHandler                         0x080001e7   Thumb Code     0  startup_stm32f103xb.o(.text)
    EXTI4_IRQHandler                         0x080001e7   Thumb Code     0  startup_stm32f103xb.o(.text)
    EXTI9_5_IRQHandler                       0x080001e7   Thumb Code     0  startup_stm32f103xb.o(.text)
    FLASH_IRQHandler                         0x080001e7   Thumb Code     0  startup_stm32f103xb.o(.text)
    I2C1_ER_IRQHandler                       0x080001e7   Thumb Code     0  startup_stm32f103xb.o(.text)
    I2C1_EV_IRQHandler                       0x080001e7   Thumb Code     0  startup_stm32f103xb.o(.text)
    I2C2_ER_IRQHandler                       0x080001e7   Thumb Code     0  startup_stm32f103xb.o(.text)
    I2C2_EV_IRQHandler                       0x080001e7   Thumb Code     0  startup_stm32f103xb.o(.text)
    PVD_IRQHandler                           0x080001e7   Thumb Code     0  startup_stm32f103xb.o(.text)
    RCC_IRQHandler                           0x080001e7   Thumb Code     0  startup_stm32f103xb.o(.text)
    RTC_Alarm_IRQHandler                     0x080001e7   Thumb Code     0  startup_stm32f103xb.o(.text)
    RTC_IRQHandler                           0x080001e7   Thumb Code     0  startup_stm32f103xb.o(.text)
    SPI1_IRQHandler                          0x080001e7   Thumb Code     0  startup_stm32f103xb.o(.text)
    SPI2_IRQHandler                          0x080001e7   Thumb Code     0  startup_stm32f103xb.o(.text)
    TAMPER_IRQHandler                        0x080001e7   Thumb Code     0  startup_stm32f103xb.o(.text)
    TIM1_BRK_IRQHandler                      0x080001e7   Thumb Code     0  startup_stm32f103xb.o(.text)
    TIM1_CC_IRQHandler                       0x080001e7   Thumb Code     0  startup_stm32f103xb.o(.text)
    TIM1_TRG_COM_IRQHandler                  0x080001e7   Thumb Code     0  startup_stm32f103xb.o(.text)
    TIM1_UP_IRQHandler                       0x080001e7   Thumb Code     0  startup_stm32f103xb.o(.text)
    TIM2_IRQHandler                          0x080001e7   Thumb Code     0  startup_stm32f103xb.o(.text)
    TIM3_IRQHandler                          0x080001e7   Thumb Code     0  startup_stm32f103xb.o(.text)
    TIM4_IRQHandler                          0x080001e7   Thumb Code     0  startup_stm32f103xb.o(.text)
    USART1_IRQHandler                        0x080001e7   Thumb Code     0  startup_stm32f103xb.o(.text)
    USART3_IRQHandler                        0x080001e7   Thumb Code     0  startup_stm32f103xb.o(.text)
    USBWakeUp_IRQHandler                     0x080001e7   Thumb Code     0  startup_stm32f103xb.o(.text)
    USB_HP_CAN1_TX_IRQHandler                0x080001e7   Thumb Code     0  startup_stm32f103xb.o(.text)
    WWDG_IRQHandler                          0x080001e7   Thumb Code     0  startup_stm32f103xb.o(.text)
    __user_initial_stackheap                 0x080001e9   Thumb Code     0  startup_stm32f103xb.o(.text)
    __aeabi_llsr                             0x0800020d   Thumb Code     0  llushr.o(.text)
    _ll_ushift_r                             0x0800020d   Thumb Code    38  llushr.o(.text)
    memcmp                                   0x08000233   Thumb Code    88  memcmp.o(.text)
    strlen                                   0x0800028b   Thumb Code    62  strlen.o(.text)
    strncmp                                  0x080002c9   Thumb Code   150  strncmp.o(.text)
    strcat                                   0x0800035f   Thumb Code    24  strcat.o(.text)
    __aeabi_memcpy                           0x08000377   Thumb Code     0  rt_memcpy_v6.o(.text)
    __rt_memcpy                              0x08000377   Thumb Code   138  rt_memcpy_v6.o(.text)
    _memcpy_lastbytes                        0x080003dd   Thumb Code     0  rt_memcpy_v6.o(.text)
    __aeabi_memmove                          0x08000401   Thumb Code     0  rt_memmove_v6.o(.text)
    __rt_memmove                             0x08000401   Thumb Code   132  rt_memmove_v6.o(.text)
    __memmove_lastfew                        0x08000461   Thumb Code     0  rt_memmove_v6.o(.text)
    __aeabi_memcpy4                          0x08000485   Thumb Code     0  rt_memcpy_w.o(.text)
    __aeabi_memcpy8                          0x08000485   Thumb Code     0  rt_memcpy_w.o(.text)
    __rt_memcpy_w                            0x08000485   Thumb Code   100  rt_memcpy_w.o(.text)
    _memcpy_lastbytes_aligned                0x080004cd   Thumb Code     0  rt_memcpy_w.o(.text)
    __aeabi_memset                           0x080004e9   Thumb Code    16  aeabi_memset.o(.text)
    __aeabi_memclr                           0x080004f9   Thumb Code     0  rt_memclr.o(.text)
    __rt_memclr                              0x080004f9   Thumb Code    68  rt_memclr.o(.text)
    _memset                                  0x080004fd   Thumb Code     0  rt_memclr.o(.text)
    __aeabi_memclr4                          0x0800053d   Thumb Code     0  rt_memclr_w.o(.text)
    __aeabi_memclr8                          0x0800053d   Thumb Code     0  rt_memclr_w.o(.text)
    __rt_memclr_w                            0x0800053d   Thumb Code    78  rt_memclr_w.o(.text)
    _memset_w                                0x08000541   Thumb Code     0  rt_memclr_w.o(.text)
    __use_two_region_memory                  0x0800058b   Thumb Code     2  heapauxi.o(.text)
    __rt_heap_escrow$2region                 0x0800058d   Thumb Code     2  heapauxi.o(.text)
    __rt_heap_expand$2region                 0x0800058f   Thumb Code     2  heapauxi.o(.text)
    __aeabi_memmove4                         0x08000591   Thumb Code     0  rt_memmove_w.o(.text)
    __aeabi_memmove8                         0x08000591   Thumb Code     0  rt_memmove_w.o(.text)
    __rt_memmove_w                           0x08000591   Thumb Code   122  rt_memmove_w.o(.text)
    __memmove_aligned                        0x080005b7   Thumb Code     0  rt_memmove_w.o(.text)
    __memmove_lastfew_aligned                0x080005ef   Thumb Code     0  rt_memmove_w.o(.text)
    __user_setup_stackheap                   0x0800060b   Thumb Code    74  sys_stackheap_outer.o(.text)
    exit                                     0x08000655   Thumb Code    18  exit.o(.text)
    __user_libspace                          0x08000669   Thumb Code     8  libspace.o(.text)
    __user_perproc_libspace                  0x08000669   Thumb Code     0  libspace.o(.text)
    __user_perthread_libspace                0x08000669   Thumb Code     0  libspace.o(.text)
    _sys_exit                                0x08000671   Thumb Code     8  sys_exit.o(.text)
    __I$use$semihosting                      0x0800067d   Thumb Code     0  use_no_semi.o(.text)
    __use_no_semihosting_swi                 0x0800067d   Thumb Code     2  use_no_semi.o(.text)
    __semihosting_library_function           0x0800067f   Thumb Code     0  indicate_semi.o(.text)
    EP_Reset                                 0x08000681   Thumb Code    34  usbd_stm32f103.o(i.EP_Reset)
    EP_Status                                0x080006a9   Thumb Code    54  usbd_stm32f103.o(i.EP_Status)
    EraseSector                              0x080006e5   Thumb Code    46  flash.o(i.EraseSector)
    FLASH_PageErase                          0x08000739   Thumb Code    28  stm32f1xx_hal_flash_ex.o(i.FLASH_PageErase)
    FLASH_WaitForLastOperation               0x080007bd   Thumb Code    80  stm32f1xx_hal_flash.o(i.FLASH_WaitForLastOperation)
    HAL_Delay                                0x08000811   Thumb Code    22  stm32f1xx_hal.o(i.HAL_Delay)
    HAL_FLASHEx_Erase                        0x08000829   Thumb Code   160  stm32f1xx_hal_flash_ex.o(i.HAL_FLASHEx_Erase)
    HAL_FLASH_Lock                           0x080008d1   Thumb Code    14  stm32f1xx_hal_flash.o(i.HAL_FLASH_Lock)
    HAL_FLASH_Program                        0x080008e5   Thumb Code   122  stm32f1xx_hal_flash.o(i.HAL_FLASH_Program)
    HAL_FLASH_Unlock                         0x08000969   Thumb Code    24  stm32f1xx_hal_flash.o(i.HAL_FLASH_Unlock)
    HAL_GPIO_Init                            0x0800098d   Thumb Code   422  stm32f1xx_hal_gpio.o(i.HAL_GPIO_Init)
    HAL_GPIO_WritePin                        0x08000b55   Thumb Code    10  stm32f1xx_hal_gpio.o(i.HAL_GPIO_WritePin)
    HAL_GetTick                              0x08000b61   Thumb Code    34  sdk.o(i.HAL_GetTick)
    HAL_Init                                 0x08000b8d   Thumb Code    32  stm32f1xx_hal.o(i.HAL_Init)
    HAL_InitTick                             0x08000bb1   Thumb Code   146  sdk.o(i.HAL_InitTick)
    HAL_MspInit                              0x08000c55   Thumb Code     2  stm32f1xx_hal.o(i.HAL_MspInit)
    HAL_NVIC_SetPriorityGrouping             0x08000c59   Thumb Code    26  stm32f1xx_hal_cortex.o(i.HAL_NVIC_SetPriorityGrouping)
    HAL_RCC_ClockConfig                      0x08000c7d   Thumb Code   366  stm32f1xx_hal_rcc.o(i.HAL_RCC_ClockConfig)
    HAL_RCC_GetClockConfig                   0x08000dfd   Thumb Code    54  stm32f1xx_hal_rcc.o(i.HAL_RCC_GetClockConfig)
    HAL_RCC_GetSysClockFreq                  0x08000e3d   Thumb Code   102  stm32f1xx_hal_rcc.o(i.HAL_RCC_GetSysClockFreq)
    HAL_RCC_OscConfig                        0x08000ec5   Thumb Code  1402  stm32f1xx_hal_rcc.o(i.HAL_RCC_OscConfig)
    HAL_TIM_Base_DeInit                      0x0800143f   Thumb Code    56  stm32f1xx_hal_tim.o(i.HAL_TIM_Base_DeInit)
    HAL_TIM_Base_Init                        0x08001477   Thumb Code    54  stm32f1xx_hal_tim.o(i.HAL_TIM_Base_Init)
    HAL_TIM_Base_MspDeInit                   0x080014ad   Thumb Code     2  stm32f1xx_hal_tim.o(i.HAL_TIM_Base_MspDeInit)
    HAL_TIM_Base_MspInit                     0x080014af   Thumb Code     2  stm32f1xx_hal_tim.o(i.HAL_TIM_Base_MspInit)
    HAL_TIM_Base_Start                       0x080014b1   Thumb Code    26  stm32f1xx_hal_tim.o(i.HAL_TIM_Base_Start)
    HAL_TIM_PWM_ConfigChannel                0x080014cb   Thumb Code   208  stm32f1xx_hal_tim.o(i.HAL_TIM_PWM_ConfigChannel)
    HAL_TIM_PWM_DeInit                       0x0800159b   Thumb Code    56  stm32f1xx_hal_tim.o(i.HAL_TIM_PWM_DeInit)
    HAL_TIM_PWM_Init                         0x080015d3   Thumb Code    54  stm32f1xx_hal_tim.o(i.HAL_TIM_PWM_Init)
    HAL_TIM_PWM_MspDeInit                    0x08001609   Thumb Code     2  stm32f1xx_hal_tim.o(i.HAL_TIM_PWM_MspDeInit)
    HAL_TIM_PWM_MspInit                      0x0800160b   Thumb Code     2  stm32f1xx_hal_tim.o(i.HAL_TIM_PWM_MspInit)
    HAL_TIM_PWM_Start                        0x0800160d   Thumb Code    42  stm32f1xx_hal_tim.o(i.HAL_TIM_PWM_Start)
    HardFault_Handler                        0x0800163d   Thumb Code     4  hardfault_handler.o(i.HardFault_Handler)
    Init                                     0x08001641   Thumb Code     4  flash.o(i.Init)
    ProgramPage                              0x08001645   Thumb Code    78  flash.o(i.ProgramPage)
    SysTick_Handler                          0x0800169d   Thumb Code    48  systick_handler.o(i.SysTick_Handler)
    SystemCoreClockUpdate                    0x080016d1   Thumb Code    84  system_stm32f1xx.o(i.SystemCoreClockUpdate)
    SystemInit                               0x08001739   Thumb Code    56  system_stm32f1xx.o(i.SystemInit)
    SystemReset                              0x08001781   Thumb Code    26  cortex_m.o(i.SystemReset)
    TIM_Base_SetConfig                       0x080017a5   Thumb Code    86  stm32f1xx_hal_tim.o(i.TIM_Base_SetConfig)
    TIM_CCxChannelCmd                        0x08001809   Thumb Code    22  stm32f1xx_hal_tim.o(i.TIM_CCxChannelCmd)
    TIM_OC2_SetConfig                        0x08001879   Thumb Code    86  stm32f1xx_hal_tim.o(i.TIM_OC2_SetConfig)
    USART2_IRQHandler                        0x08001971   Thumb Code    86  uart.o(i.USART2_IRQHandler)
    USBD_ClrStallEP                          0x080019f1   Thumb Code    22  usbd_stm32f103.o(i.USBD_ClrStallEP)
    USBD_ConfigEP                            0x08001a09   Thumb Code   136  usbd_stm32f103.o(i.USBD_ConfigEP)
    USBD_Configure                           0x08001a99   Thumb Code    12  usbd_stm32f103.o(i.USBD_Configure)
    USBD_Connect                             0x08001aa9   Thumb Code    40  usbd_stm32f103.o(i.USBD_Connect)
    USBD_DataInStage                         0x08001ad9   Thumb Code    48  usbd_core.o(i.USBD_DataInStage)
    USBD_DataOutStage                        0x08001b11   Thumb Code    28  usbd_core.o(i.USBD_DataOutStage)
    USBD_DirCtrlEP                           0x08001b31   Thumb Code     2  usbd_stm32f103.o(i.USBD_DirCtrlEP)
    USBD_DisableEP                           0x08001b33   Thumb Code     6  usbd_stm32f103.o(i.USBD_DisableEP)
    USBD_EnableEP                            0x08001b39   Thumb Code     8  usbd_stm32f103.o(i.USBD_EnableEP)
    USBD_EndPoint0                           0x08001b41   Thumb Code   446  usbd_core.o(i.USBD_EndPoint0)
    USBD_EndPoint0_Out_CDC_ReqToIF           0x08001d15   Thumb Code     4  usb_config.o(i.USBD_EndPoint0_Out_CDC_ReqToIF)
    USBD_EndPoint0_Out_HID_ReqToIF           0x08001d19   Thumb Code     4  usb_config.o(i.USBD_EndPoint0_Out_HID_ReqToIF)
    USBD_EndPoint0_Setup_CDC_ReqToIF         0x08001d1d   Thumb Code     4  usb_config.o(i.USBD_EndPoint0_Setup_CDC_ReqToIF)
    USBD_EndPoint0_Setup_HID_ReqToIF         0x08001d21   Thumb Code     4  usb_config.o(i.USBD_EndPoint0_Setup_HID_ReqToIF)
    USBD_EndPoint0_Setup_MSC_ReqToIF         0x08001d25   Thumb Code    74  usbd_core_msc.o(i.USBD_EndPoint0_Setup_MSC_ReqToIF)
    USBD_EndPoint0_Setup_WebUSB_ReqToDevice  0x08001d81   Thumb Code     4  usb_config.o(i.USBD_EndPoint0_Setup_WebUSB_ReqToDevice)
    USBD_EndPoint0_Setup_WinUSB_ReqToDevice  0x08001d85   Thumb Code     4  usb_config.o(i.USBD_EndPoint0_Setup_WinUSB_ReqToDevice)
    USBD_Handler                             0x08001d89   Thumb Code   228  usbd_stm32f103.o(i.USBD_Handler)
    USBD_Init                                0x08001e8d   Thumb Code    28  usbd_stm32f103.o(i.USBD_Init)
    USBD_MSC_ATAPassThrough                  0x08001eb1   Thumb Code    70  usbd_msc.o(i.USBD_MSC_ATAPassThrough)
    USBD_MSC_BulkIn                          0x08001f09   Thumb Code    70  usbd_msc.o(i.USBD_MSC_BulkIn)
    USBD_MSC_BulkOut                         0x08001f5d   Thumb Code   128  usbd_msc.o(i.USBD_MSC_BulkOut)
    USBD_MSC_CheckMedia                      0x08001ff5   Thumb Code    68  usbd_msc.o(i.USBD_MSC_CheckMedia)
    USBD_MSC_ClrStallEP                      0x08002049   Thumb Code    68  usbd_msc.o(i.USBD_MSC_ClrStallEP)
    USBD_MSC_DataInFormat                    0x080020a1   Thumb Code    42  usbd_msc.o(i.USBD_MSC_DataInFormat)
    USBD_MSC_DataInTransfer                  0x080020d5   Thumb Code    58  usbd_msc.o(i.USBD_MSC_DataInTransfer)
    USBD_MSC_EP_BULKOUT_Event                0x08002121   Thumb Code    28  usbd_msc.o(i.USBD_MSC_EP_BULKOUT_Event)
    USBD_MSC_EP_BULK_Event                   0x0800214d   Thumb Code    28  usbd_msc.o(i.USBD_MSC_EP_BULK_Event)
    USBD_MSC_GetCBW                          0x08002169   Thumb Code   468  usbd_msc.o(i.USBD_MSC_GetCBW)
    USBD_MSC_GetMaxLUN                       0x08002359   Thumb Code    10  usbd_msc.o(i.USBD_MSC_GetMaxLUN)
    USBD_MSC_Inquiry                         0x08002369   Thumb Code    78  usbd_msc.o(i.USBD_MSC_Inquiry)
    USBD_MSC_MediaRemoval                    0x080023c5   Thumb Code    22  usbd_msc.o(i.USBD_MSC_MediaRemoval)
    USBD_MSC_MemoryRead                      0x080023e1   Thumb Code   192  usbd_msc.o(i.USBD_MSC_MemoryRead)
    USBD_MSC_MemoryVerify                    0x080024b5   Thumb Code   194  usbd_msc.o(i.USBD_MSC_MemoryVerify)
    USBD_MSC_MemoryWrite                     0x08002589   Thumb Code   216  usbd_msc.o(i.USBD_MSC_MemoryWrite)
    USBD_MSC_ModeSense10                     0x08002679   Thumb Code    76  usbd_msc.o(i.USBD_MSC_ModeSense10)
    USBD_MSC_ModeSense6                      0x080026d1   Thumb Code    68  usbd_msc.o(i.USBD_MSC_ModeSense6)
    USBD_MSC_RWSetup                         0x08002721   Thumb Code   156  usbd_msc.o(i.USBD_MSC_RWSetup)
    USBD_MSC_ReadCapacity                    0x080027cd   Thumb Code    70  usbd_msc.o(i.USBD_MSC_ReadCapacity)
    USBD_MSC_ReadFormatCapacity              0x0800281d   Thumb Code    96  usbd_msc.o(i.USBD_MSC_ReadFormatCapacity)
    USBD_MSC_RequestSense                    0x08002889   Thumb Code   120  usbd_msc.o(i.USBD_MSC_RequestSense)
    USBD_MSC_Reset                           0x0800290d   Thumb Code    20  usbd_msc.o(i.USBD_MSC_Reset)
    USBD_MSC_ServiceActionIn16               0x0800292d   Thumb Code    60  usbd_msc.o(i.USBD_MSC_ServiceActionIn16)
    USBD_MSC_SetCSW                          0x08002979   Thumb Code    30  usbd_msc.o(i.USBD_MSC_SetCSW)
    USBD_MSC_SetStallEP                      0x080029a9   Thumb Code    38  usbd_msc.o(i.USBD_MSC_SetStallEP)
    USBD_MSC_StartStopUnit                   0x080029d5   Thumb Code    42  usbd_msc.o(i.USBD_MSC_StartStopUnit)
    USBD_MSC_SynchronizeCache                0x08002a09   Thumb Code    10  usbd_msc.o(i.USBD_MSC_SynchronizeCache)
    USBD_MSC_TestUnitReady                   0x08002a19   Thumb Code    62  usbd_msc.o(i.USBD_MSC_TestUnitReady)
    USBD_RTX_TaskInit                        0x08002a65   Thumb Code     2  usb_config.o(i.USBD_RTX_TaskInit)
    USBD_ReadEP                              0x08002a69   Thumb Code    68  usbd_stm32f103.o(i.USBD_ReadEP)
    USBD_ReqClrFeature_MSC                   0x08002ab5   Thumb Code     4  usbd_core_msc.o(i.USBD_ReqClrFeature_MSC)
    USBD_ReqGetDescriptor_HID                0x08002c25   Thumb Code     4  usb_config.o(i.USBD_ReqGetDescriptor_HID)
    USBD_Reset                               0x08002ff9   Thumb Code   142  usbd_stm32f103.o(i.USBD_Reset)
    USBD_ResetEP                             0x080030a9   Thumb Code     4  usbd_stm32f103.o(i.USBD_ResetEP)
    USBD_SetAddress                          0x080030ad   Thumb Code    14  usbd_stm32f103.o(i.USBD_SetAddress)
    USBD_SetStallEP                          0x080030c1   Thumb Code     8  usbd_stm32f103.o(i.USBD_SetStallEP)
    USBD_SetupStage                          0x080030c9   Thumb Code    10  usbd_core.o(i.USBD_SetupStage)
    USBD_SignalHandler                       0x080030d9   Thumb Code    12  main_bootloader.o(i.USBD_SignalHandler)
    USBD_StatusInStage                       0x080030e9   Thumb Code    10  usbd_core.o(i.USBD_StatusInStage)
    USBD_StatusOutStage                      0x080030f5   Thumb Code    12  usbd_core.o(i.USBD_StatusOutStage)
    USBD_Suspend                             0x08003109   Thumb Code    20  usbd_stm32f103.o(i.USBD_Suspend)
    USBD_WakeUp                              0x08003121   Thumb Code    12  usbd_stm32f103.o(i.USBD_WakeUp)
    USBD_WakeUpCfg                           0x08003131   Thumb Code     2  usbd_stm32f103.o(i.USBD_WakeUpCfg)
    USBD_WriteEP                             0x08003135   Thumb Code    86  usbd_stm32f103.o(i.USBD_WriteEP)
    USB_LP_CAN1_RX0_IRQHandler               0x08003199   Thumb Code   150  usbd_stm32f103.o(i.USB_LP_CAN1_RX0_IRQHandler)
    UnInit                                   0x0800323d   Thumb Code     4  flash.o(i.UnInit)
    _fault_handler                           0x0800325d   Thumb Code   160  hardfault_handler.o(i._fault_handler)
    _util_assert                             0x08003309   Thumb Code    66  util.o(i._util_assert)
    board_bootloader_init                    0x0800334b   Thumb Code     2  main_bootloader.o(i.board_bootloader_init)
    board_vfs_stream_closed_hook             0x0800334d   Thumb Code     2  vfs_manager.o(i.board_vfs_stream_closed_hook)
    circ_buf_count_free                      0x080033c9   Thumb Code    26  circ_buf.o(i.circ_buf_count_free)
    circ_buf_count_used                      0x080033e3   Thumb Code    30  circ_buf.o(i.circ_buf_count_used)
    circ_buf_pop                             0x08003401   Thumb Code    82  circ_buf.o(i.circ_buf_pop)
    circ_buf_push                            0x0800345d   Thumb Code    82  circ_buf.o(i.circ_buf_push)
    circ_buf_write                           0x080034b9   Thumb Code    46  circ_buf.o(i.circ_buf_write)
    config_get_auto_rst                      0x080034ef   Thumb Code     4  settings_rom_stub.o(i.config_get_auto_rst)
    config_get_automation_allowed            0x080034f3   Thumb Code     4  settings_rom_stub.o(i.config_get_automation_allowed)
    config_get_detect_incompatible_target    0x080034f7   Thumb Code     4  settings_rom_stub.o(i.config_get_detect_incompatible_target)
    config_get_overflow_detect               0x080034fb   Thumb Code     4  settings_rom_stub.o(i.config_get_overflow_detect)
    config_init                              0x08003501   Thumb Code   138  settings.o(i.config_init)
    config_ram_add_hexdump                   0x08003599   Thumb Code    32  settings.o(i.config_ram_add_hexdump)
    config_ram_clear_assert                  0x080035bd   Thumb Code    22  settings.o(i.config_ram_clear_assert)
    config_ram_get_assert                    0x080035d9   Thumb Code   104  settings.o(i.config_ram_get_assert)
    config_ram_get_hexdumps                  0x08003645   Thumb Code    24  settings.o(i.config_ram_get_hexdumps)
    config_ram_get_initial_hold_in_bl        0x08003661   Thumb Code    12  settings.o(i.config_ram_get_initial_hold_in_bl)
    config_ram_get_page_erase                0x08003671   Thumb Code    14  settings.o(i.config_ram_get_page_erase)
    config_ram_set_assert                    0x08003685   Thumb Code    62  settings.o(i.config_ram_set_assert)
    config_ram_set_disable_msd               0x080036c9   Thumb Code     8  settings.o(i.config_ram_set_disable_msd)
    config_ram_set_page_erase                0x080036d5   Thumb Code     8  settings.o(i.config_ram_set_page_erase)
    config_rom_init                          0x080036e1   Thumb Code     2  settings_rom_stub.o(i.config_rom_init)
    config_set_auto_rst                      0x080036e3   Thumb Code     2  settings_rom_stub.o(i.config_set_auto_rst)
    config_set_automation_allowed            0x080036e5   Thumb Code     2  settings_rom_stub.o(i.config_set_automation_allowed)
    config_set_detect_incompatible_target    0x080036e7   Thumb Code     2  settings_rom_stub.o(i.config_set_detect_incompatible_target)
    config_set_overflow_detect               0x080036e9   Thumb Code     2  settings_rom_stub.o(i.config_set_overflow_detect)
    crc32                                    0x080036ed   Thumb Code    76  crc32.o(i.crc32)
    error_get_string                         0x08003875   Thumb Code    30  error.o(i.error_get_string)
    error_get_type                           0x080038a5   Thumb Code    14  error.o(i.error_get_type)
    expand_string_in_region                  0x080039ed   Thumb Code    74  vfs_user.o(i.expand_string_in_region)
    filename_valid                           0x08003b89   Thumb Code   100  virtual_fs.o(i.filename_valid)
    flash_decoder_close                      0x08003c01   Thumb Code    56  flash_decoder.o(i.flash_decoder_close)
    flash_decoder_detect_type                0x08003c45   Thumb Code    90  flash_decoder.o(i.flash_decoder_detect_type)
    flash_decoder_get_flash                  0x08003cb5   Thumb Code   124  flash_decoder.o(i.flash_decoder_get_flash)
    flash_decoder_open                       0x08003da9   Thumb Code    52  flash_decoder.o(i.flash_decoder_open)
    flash_decoder_validate_target_image      0x08003ded   Thumb Code     4  flash_decoder.o(i.flash_decoder_validate_target_image)
    flash_decoder_write                      0x08003df1   Thumb Code   314  flash_decoder.o(i.flash_decoder_write)
    flash_erase_sector                       0x08003f3d   Thumb Code    18  flash_hal.o(i.flash_erase_sector)
    flash_is_readable                        0x08003f4f   Thumb Code    32  flash_hal.o(i.flash_is_readable)
    flash_manager_data                       0x08003f71   Thumb Code   250  flash_manager.o(i.flash_manager_data)
    flash_manager_init                       0x0800407d   Thumb Code   128  flash_manager.o(i.flash_manager_init)
    flash_manager_uninit                     0x0800410d   Thumb Code    88  flash_manager.o(i.flash_manager_uninit)
    flash_program_page                       0x08004175   Thumb Code    18  flash_hal.o(i.flash_program_page)
    get_board_id                             0x080041cd   Thumb Code    32  target_board.o(i.get_board_id)
    get_family_id                            0x080041f1   Thumb Code    32  target_board.o(i.get_family_id)
    gpio_get_reset_btn_fwrd                  0x0800421f   Thumb Code     4  gpio.o(i.gpio_get_reset_btn_fwrd)
    gpio_get_reset_btn_no_fwrd               0x08004225   Thumb Code    12  gpio.o(i.gpio_get_reset_btn_no_fwrd)
    gpio_init                                0x08004235   Thumb Code   344  gpio.o(i.gpio_init)
    gpio_set_cdc_led                         0x080043a1   Thumb Code    18  gpio.o(i.gpio_set_cdc_led)
    gpio_set_hid_led                         0x080043b9   Thumb Code    18  gpio.o(i.gpio_set_hid_led)
    gpio_set_msc_led                         0x080043d1   Thumb Code    18  gpio.o(i.gpio_set_msc_led)
    hex32_field_in_region                    0x080043e9   Thumb Code    62  vfs_user.o(i.hex32_field_in_region)
    info_crc_compute                         0x08004439   Thumb Code    94  info.o(i.info_crc_compute)
    info_get_board_id                        0x080044a9   Thumb Code     4  info.o(i.info_get_board_id)
    info_get_bootloader_present              0x080044b1   Thumb Code    42  info.o(i.info_get_bootloader_present)
    info_get_crc_bootloader                  0x080044e9   Thumb Code     6  info.o(i.info_get_crc_bootloader)
    info_get_crc_interface                   0x080044f5   Thumb Code     6  info.o(i.info_get_crc_interface)
    info_get_hic_id                          0x08004501   Thumb Code     4  info.o(i.info_get_hic_id)
    info_get_host_id                         0x08004509   Thumb Code     4  info.o(i.info_get_host_id)
    info_get_interface_present               0x08004511   Thumb Code    42  info.o(i.info_get_interface_present)
    info_get_interface_version               0x08004549   Thumb Code    16  info.o(i.info_get_interface_version)
    info_get_mac                             0x0800455d   Thumb Code     4  info.o(i.info_get_mac)
    info_get_target_id                       0x08004565   Thumb Code     4  info.o(i.info_get_target_id)
    info_get_unique_id                       0x0800456d   Thumb Code     4  info.o(i.info_get_unique_id)
    info_get_unique_id_string_descriptor     0x08004575   Thumb Code     4  info.o(i.info_get_unique_id_string_descriptor)
    info_get_version                         0x0800457d   Thumb Code     4  info.o(i.info_get_version)
    info_init                                0x08004585   Thumb Code   134  info.o(i.info_init)
    main                                     0x080046b5   Thumb Code    78  main_bootloader.o(i.main)
    main_blink_msc_led                       0x08004711   Thumb Code    10  main_bootloader.o(i.main_blink_msc_led)
    main_task                                0x08004721   Thumb Code   286  main_bootloader.o(i.main_task)
    osDelay                                  0x08004869   Thumb Code    10  cmsis_os2_port.o(i.osDelay)
    osKernelInitialize                       0x08004873   Thumb Code    10  cmsis_os2_port.o(i.osKernelInitialize)
    osKernelStart                            0x0800487d   Thumb Code    10  cmsis_os2_port.o(i.osKernelStart)
    osMutexAcquire                           0x08004887   Thumb Code     4  cmsis_os2_port.o(i.osMutexAcquire)
    osMutexNew                               0x0800488b   Thumb Code     4  cmsis_os2_port.o(i.osMutexNew)
    osMutexRelease                           0x0800488f   Thumb Code     4  cmsis_os2_port.o(i.osMutexRelease)
    osThreadFlagsSet                         0x08004893   Thumb Code    14  cmsis_os2_port.o(i.osThreadFlagsSet)
    osThreadFlagsWait                        0x080048a1   Thumb Code     4  cmsis_os2_port.o(i.osThreadFlagsWait)
    osThreadGetId                            0x080048a5   Thumb Code     4  cmsis_os2_port.o(i.osThreadGetId)
    osThreadNew                              0x080048a9   Thumb Code    10  cmsis_os2_port.o(i.osThreadNew)
    osTimerNew                               0x080048b3   Thumb Code    10  cmsis_os2_port.o(i.osTimerNew)
    osTimerStart                             0x080048bd   Thumb Code    12  cmsis_os2_port.o(i.osTimerStart)
    parse_hex_blob                           0x0800499d   Thumb Code   610  intelhex.o(i.parse_hex_blob)
    read_unique_id                           0x08005079   Thumb Code    26  read_uid.o(i.read_unique_id)
    reset_button_pressed                     0x0800517d   Thumb Code    20  main_bootloader.o(i.reset_button_pressed)
    reset_hex_parser                         0x08005191   Thumb Code    30  intelhex.o(i.reset_hex_parser)
    sdk_init                                 0x080051b9   Thumb Code   138  sdk.o(i.sdk_init)
    setting_in_region                        0x0800524d   Thumb Code    24  vfs_user.o(i.setting_in_region)
    stream_close                             0x0800547d   Thumb Code    40  file_stream.o(i.stream_close)
    stream_open                              0x080054b5   Thumb Code    78  file_stream.o(i.stream_open)
    stream_start_identify                    0x08005515   Thumb Code    44  file_stream.o(i.stream_start_identify)
    stream_type_from_name                    0x08005571   Thumb Code    40  file_stream.o(i.stream_type_from_name)
    stream_write                             0x080055a1   Thumb Code    86  file_stream.o(i.stream_write)
    string_field_in_region                   0x08005609   Thumb Code    88  vfs_user.o(i.string_field_in_region)
    sysTickEvtSet                            0x080056b5   Thumb Code    14  systick_handler.o(i.sysTickEvtSet)
    sysTickEvtWaitOr                         0x080056c9   Thumb Code    24  systick_handler.o(i.sysTickEvtWaitOr)
    sysTickFreqSet                           0x080056e5   Thumb Code     6  systick_handler.o(i.sysTickFreqSet)
    sysTickInit                              0x080056f1   Thumb Code    40  systick_handler.o(i.sysTickInit)
    sysTickRegCallback                       0x08005725   Thumb Code     6  systick_handler.o(i.sysTickRegCallback)
    sysTickRegMainFunc                       0x08005731   Thumb Code     6  systick_handler.o(i.sysTickRegMainFunc)
    sysTickStartMain                         0x0800573d   Thumb Code    14  systick_handler.o(i.sysTickStartMain)
    sysTickWait                              0x08005751   Thumb Code    12  systick_handler.o(i.sysTickWait)
    timer_task_30mS                          0x08005781   Thumb Code    46  main_bootloader.o(i.timer_task_30mS)
    uint32_field_in_region                   0x08005a71   Thumb Code    52  vfs_user.o(i.uint32_field_in_region)
    usbd_class_init                          0x08005d91   Thumb Code    62  usb_config.o(i.usbd_class_init)
    usbd_configured                          0x08005dfd   Thumb Code    12  usbd_core.o(i.usbd_configured)
    usbd_connect                             0x08005e0d   Thumb Code     4  usbd_core.o(i.usbd_connect)
    usbd_init                                0x08005e11   Thumb Code    24  usbd_core.o(i.usbd_init)
    usbd_msc_init                            0x08005e2d   Thumb Code    36  vfs_manager.o(i.usbd_msc_init)
    usbd_msc_read_sect                       0x08005e59   Thumb Code    42  vfs_manager.o(i.usbd_msc_read_sect)
    usbd_msc_start_stop                      0x08005e89   Thumb Code     2  usbd_msc.o(i.usbd_msc_start_stop)
    usbd_msc_write_sect                      0x08005e8d   Thumb Code    80  vfs_manager.o(i.usbd_msc_write_sect)
    usbd_reset_core                          0x08005ee9   Thumb Code    26  usbd_core.o(i.usbd_reset_core)
    util_assert_clear                        0x08005f0d   Thumb Code    18  util.o(i.util_assert_clear)
    util_write_hex32                         0x08005f1f   Thumb Code    50  util.o(i.util_write_hex32)
    util_write_hex8                          0x08005f51   Thumb Code    22  util.o(i.util_write_hex8)
    util_write_in_region                     0x08005f6d   Thumb Code    72  util.o(i.util_write_in_region)
    util_write_string_in_region              0x08005fb5   Thumb Code    40  util.o(i.util_write_string_in_region)
    util_write_uint32                        0x08005fdd   Thumb Code    84  util.o(i.util_write_uint32)
    util_write_uint32_zp                     0x08006031   Thumb Code    46  util.o(i.util_write_uint32_zp)
    validate_bin_nvic                        0x08006061   Thumb Code    30  validation.o(i.validate_bin_nvic)
    validate_bin_nvic_base                   0x08006085   Thumb Code   118  validation.o(i.validate_bin_nvic_base)
    validate_hexfile                         0x08006101   Thumb Code    48  validation.o(i.validate_hexfile)
    vfs_create_file                          0x08006135   Thumb Code   264  virtual_fs.o(i.vfs_create_file)
    vfs_file_get_attr                        0x08006261   Thumb Code     4  virtual_fs.o(i.vfs_file_get_attr)
    vfs_file_get_size                        0x08006265   Thumb Code     4  virtual_fs.o(i.vfs_file_get_size)
    vfs_file_get_start_sector                0x08006269   Thumb Code    36  virtual_fs.o(i.vfs_file_get_start_sector)
    vfs_file_set_attr                        0x08006295   Thumb Code     4  virtual_fs.o(i.vfs_file_set_attr)
    vfs_get_total_size                       0x08006299   Thumb Code    42  virtual_fs.o(i.vfs_get_total_size)
    vfs_init                                 0x080062d1   Thumb Code   326  virtual_fs.o(i.vfs_init)
    vfs_mngr_fs_remount                      0x0800643d   Thumb Code    32  vfs_manager.o(i.vfs_mngr_fs_remount)
    vfs_mngr_get_transfer_status             0x08006461   Thumb Code    12  vfs_manager.o(i.vfs_mngr_get_transfer_status)
    vfs_mngr_init                            0x08006471   Thumb Code    38  vfs_manager.o(i.vfs_mngr_init)
    vfs_mngr_periodic                        0x080064a1   Thumb Code   160  vfs_manager.o(i.vfs_mngr_periodic)
    vfs_read                                 0x08006555   Thumb Code    94  virtual_fs.o(i.vfs_read)
    vfs_set_file_change_callback             0x080065b9   Thumb Code     6  virtual_fs.o(i.vfs_set_file_change_callback)
    vfs_user_build_filesystem                0x080065c5   Thumb Code   146  vfs_user.o(i.vfs_user_build_filesystem)
    vfs_user_build_filesystem_hook           0x080066ad   Thumb Code     2  vfs_user.o(i.vfs_user_build_filesystem_hook)
    vfs_user_disconnecting                   0x080066b1   Thumb Code    22  vfs_user.o(i.vfs_user_disconnecting)
    vfs_user_file_change_handler             0x080066cd   Thumb Code   292  vfs_user.o(i.vfs_user_file_change_handler)
    vfs_user_file_change_handler_hook        0x08006801   Thumb Code     4  vfs_user.o(i.vfs_user_file_change_handler_hook)
    vfs_user_magic_file_hook                 0x08006805   Thumb Code     4  vfs_user.o(i.vfs_user_magic_file_hook)
    vfs_write                                0x08006809   Thumb Code    94  virtual_fs.o(i.vfs_write)
    g_board_info                             0x08006ab8   Data         132  stm32f103xb_bl.o(.constdata)
    flash_intf_target                        0x08006bf0   Data           4  flash_intf.o(.constdata)
    flash_intf_iap_protected                 0x08006c18   Data           4  iap_flash_intf.o(.constdata)
    virtual_media_tmpl                       0x08006efc   Data          48  virtual_fs.o(.constdata)
    AHBPrescTable                            0x08006f6c   Data          16  system_stm32f1xx.o(.constdata)
    usbd_power                               0x08006f7c   Data           1  usb_config.o(.constdata)
    usbd_hs_enable                           0x08006f7d   Data           1  usb_config.o(.constdata)
    usbd_bos_enable                          0x08006f7e   Data           1  usb_config.o(.constdata)
    usbd_max_packet0                         0x08006f7f   Data           1  usb_config.o(.constdata)
    usbd_msc_ep_bulkin                       0x08006f80   Data           1  usb_config.o(.constdata)
    usbd_msc_ep_bulkout                      0x08006f81   Data           1  usb_config.o(.constdata)
    usbd_msc_maxpacketsize                   0x08006f82   Data           4  usb_config.o(.constdata)
    USBD_MSC_BulkBufSize                     0x08006f86   Data           2  usb_config.o(.constdata)
    USBD_P_Reset_Event                       0x08006f88   Data           4  usb_config.o(.constdata)
    USBD_P_Suspend_Event                     0x08006f8c   Data           4  usb_config.o(.constdata)
    USBD_P_Resume_Event                      0x08006f90   Data           4  usb_config.o(.constdata)
    USBD_P_SOF_Event                         0x08006f94   Data           4  usb_config.o(.constdata)
    USBD_P_Error_Event                       0x08006f98   Data           4  usb_config.o(.constdata)
    USBD_P_EP                                0x08006f9c   Data          64  usb_config.o(.constdata)
    USBD_P_Configure_Event                   0x08006fdc   Data           4  usb_config.o(.constdata)
    USBD_P_Interface_Event                   0x08006fe0   Data           4  usb_config.o(.constdata)
    USBD_P_Feature_Event                     0x08006fe4   Data           4  usb_config.o(.constdata)
    USBD_DeviceDescriptor                    0x08006fe8   Data          18  usb_config.o(.constdata)
    USBD_DeviceQualifier                     0x08006ffa   Data           1  usb_config.o(.constdata)
    USBD_DeviceQualifier_HS                  0x08006ffb   Data           1  usb_config.o(.constdata)
    USBD_BinaryObjectStoreDescriptor         0x08006ffc   Data           1  usb_config.o(.constdata)
    USBD_StringDescriptor                    0x08006ffe   Data          90  usb_config.o(.constdata)
    Region$$Table$$Base                      0x08007a88   Number         0  anon$$obj.o(Region$$Table)
    Region$$Table$$Limit                     0x08007aa8   Number         0  anon$$obj.o(Region$$Table)
    target_device                            0x20000000   Data         428  stm32f103xb_bl.o(.data)
    g_target_family                          0x200001ac   Data           4  stm32f103xb_bl.o(.data)
    usb_state                                0x200001fa   Data           1  main_bootloader.o(.data)
    main_task_id                             0x20000200   Data           4  main_bootloader.o(.data)
    stream                                   0x20000214   Data          32  file_stream.o(.data)
    board_id_hex                             0x20000288   Data           2  intelhex.o(.data)
    board_id_hex_default                     0x2000028a   Data           2  intelhex.o(.data)
    file_count                               0x200002a8   Data           1  virtual_fs.o(.data)
    file_change_cb                           0x200002ac   Data           4  virtual_fs.o(.data)
    virtual_media_idx                        0x200002b0   Data           4  virtual_fs.o(.data)
    fat_idx                                  0x200002b4   Data           4  virtual_fs.o(.data)
    dir_idx                                  0x200002b8   Data           4  virtual_fs.o(.data)
    data_start                               0x200002bc   Data           4  virtual_fs.o(.data)
    time_count                               0x200002c0   Data           4  sdk.o(.data)
    SystemCoreClock                          0x200002c4   Data           4  system_stm32f1xx.o(.data)
    usbd_if_num                              0x200002c8   Data           2  usb_config.o(.data)
    usbd_msc_inquiry_data                    0x200002cc   Data           4  usb_config.o(.data)
    USBD_ConfigDescriptor_HS                 0x200002d0   Data           1  usb_config.o(.data)
    usbd_msc_if_num                          0x200002d1   Data           1  usb_config.o(.data)
    USBD_AltSetting                          0x200002d2   Data           1  usb_config.o(.data)
    FreeBufAddr                              0x200002d4   Data           2  usbd_stm32f103.o(.data)
    pBUF_DSCR                                0x200002d8   Data           4  usbd_stm32f103.o(.data)
    StatQueueHead                            0x200002dc   Data           4  usbd_stm32f103.o(.data)
    StatQueueTail                            0x200002e0   Data           4  usbd_stm32f103.o(.data)
    LastIstr                                 0x200002e4   Data           4  usbd_stm32f103.o(.data)
    USBD_DeviceAddress                       0x20000300   Data           1  usbd_core.o(.data)
    USBD_Configuration                       0x20000301   Data           1  usbd_core.o(.data)
    USBD_NumInterfaces                       0x20000302   Data           1  usbd_core.o(.data)
    USBD_HighSpeed                           0x20000303   Data           1  usbd_core.o(.data)
    USBD_ZLP                                 0x20000304   Data           1  usbd_core.o(.data)
    USBD_DeviceStatus                        0x20000306   Data           2  usbd_core.o(.data)
    USBD_EndPointMask                        0x20000308   Data           4  usbd_core.o(.data)
    USBD_EndPointHalt                        0x2000030c   Data           4  usbd_core.o(.data)
    USBD_EndPointStall                       0x20000310   Data           4  usbd_core.o(.data)
    USBD_EP0Data                             0x20000314   Data           8  usbd_core.o(.data)
    USBD_SetupPacket                         0x2000031c   Data           8  usbd_core.o(.data)
    BulkStage                                0x20000324   Data           1  usbd_msc.o(.data)
    USBD_MSC_MediaReady                      0x20000328   Data           4  usbd_msc.o(.data)
    USBD_MSC_ReadOnly                        0x2000032c   Data           4  usbd_msc.o(.data)
    USBD_MSC_MediaReadyEx                    0x20000330   Data           4  usbd_msc.o(.data)
    USBD_MSC_BlockSize                       0x20000334   Data           4  usbd_msc.o(.data)
    USBD_MSC_BlockGroup                      0x20000338   Data           4  usbd_msc.o(.data)
    USBD_MSC_BlockCount                      0x2000033c   Data           4  usbd_msc.o(.data)
    USBD_MSC_BlockBuf                        0x20000340   Data           4  usbd_msc.o(.data)
    MemOK                                    0x20000344   Data           4  usbd_msc.o(.data)
    Block                                    0x20000348   Data           4  usbd_msc.o(.data)
    Offset                                   0x2000034c   Data           4  usbd_msc.o(.data)
    Length                                   0x20000350   Data           4  usbd_msc.o(.data)
    BulkLen                                  0x20000354   Data           4  usbd_msc.o(.data)
    USBD_MSC_MemorySize                      0x20000358   Data           4  usbd_msc.o(.data)
    usb_buffer                               0x20000dc8   Data         512  vfs_manager.o(.bss)
    mbr                                      0x20001034   Data         512  virtual_fs.o(.bss)
    fat                                      0x20001234   Data         512  virtual_fs.o(.bss)
    virtual_media                            0x20001434   Data         192  virtual_fs.o(.bss)
    dir_current                              0x200014f4   Data        1024  virtual_fs.o(.bss)
    timer                                    0x20001930   Data          60  sdk.o(.bss)
    pFlash                                   0x20001970   Data          32  stm32f1xx_hal_flash.o(.bss)
    write_buffer                             0x20001990   Data          16  uart.o(.bss)
    write_buffer_data                        0x200019a0   Data         512  uart.o(.bss)
    read_buffer                              0x20001ba0   Data          16  uart.o(.bss)
    read_buffer_data                         0x20001bb0   Data         512  uart.o(.bss)
    USBD_ConfigDescriptor                    0x20001db0   Data         200  usb_config.o(.bss)
    USBD_EP0Buf                              0x20001e78   Data          64  usb_config.o(.bss)
    USBD_MSC_BulkBuf                         0x20001eb8   Data          64  usb_config.o(.bss)
    StatQueue                                0x20001ef8   Data          28  usbd_stm32f103.o(.bss)
    USBD_MSC_CBW                             0x20001fa2   Data          31  usbd_msc.o(.bss)
    USBD_MSC_CSW                             0x20001fc1   Data          13  usbd_msc.o(.bss)
    __libspace_start                         0x20001fd0   Data          96  libspace.o(.bss)
    __temporary_stack_top$libspace           0x20002030   Data           0  libspace.o(.bss)



==============================================================================

Memory Map of the image

  Image Entry point : 0x080000ed

  Load Region LR_IROM1 (Base: 0x08000000, Size: 0x0000bef4, Max: 0x0000bc00, ABSOLUTE, COMPRESSED[0x0000bc00])

    Execution Region ER_IROM1 (Exec base: 0x08000000, Load base: 0x08000000, Size: 0x00007aa8, Max: 0x0000bc00, ABSOLUTE)

    Exec Addr    Load Addr    Size         Type   Attr      Idx    E Section Name        Object

    0x08000000   0x08000000   0x000000ec   Data   RO         2154    RESET               startup_stm32f103xb.o
    0x080000ec   0x080000ec   0x00000008   Code   RO         5656  * !!!main             c_w.l(__main.o)
    0x080000f4   0x080000f4   0x00000034   Code   RO         5819    !!!scatter          c_w.l(__scatter.o)
    0x08000128   0x08000128   0x0000005a   Code   RO         5817    !!dczerorl2         c_w.l(__dczerorl2.o)
    0x08000182   0x08000182   0x00000002   PAD
    0x08000184   0x08000184   0x0000001c   Code   RO         5821    !!handler_zi        c_w.l(__scatter_zi.o)
    0x080001a0   0x080001a0   0x00000002   Code   RO         5685    .ARM.Collect$$libinit$$00000000  c_w.l(libinit.o)
    0x080001a2   0x080001a2   0x00000000   Code   RO         5692    .ARM.Collect$$libinit$$00000002  c_w.l(libinit2.o)
    0x080001a2   0x080001a2   0x00000000   Code   RO         5694    .ARM.Collect$$libinit$$00000004  c_w.l(libinit2.o)
    0x080001a2   0x080001a2   0x00000000   Code   RO         5697    .ARM.Collect$$libinit$$0000000A  c_w.l(libinit2.o)
    0x080001a2   0x080001a2   0x00000000   Code   RO         5699    .ARM.Collect$$libinit$$0000000C  c_w.l(libinit2.o)
    0x080001a2   0x080001a2   0x00000000   Code   RO         5701    .ARM.Collect$$libinit$$0000000E  c_w.l(libinit2.o)
    0x080001a2   0x080001a2   0x00000000   Code   RO         5704    .ARM.Collect$$libinit$$00000011  c_w.l(libinit2.o)
    0x080001a2   0x080001a2   0x00000000   Code   RO         5706    .ARM.Collect$$libinit$$00000013  c_w.l(libinit2.o)
    0x080001a2   0x080001a2   0x00000000   Code   RO         5708    .ARM.Collect$$libinit$$00000015  c_w.l(libinit2.o)
    0x080001a2   0x080001a2   0x00000000   Code   RO         5710    .ARM.Collect$$libinit$$00000017  c_w.l(libinit2.o)
    0x080001a2   0x080001a2   0x00000000   Code   RO         5712    .ARM.Collect$$libinit$$00000019  c_w.l(libinit2.o)
    0x080001a2   0x080001a2   0x00000000   Code   RO         5714    .ARM.Collect$$libinit$$0000001B  c_w.l(libinit2.o)
    0x080001a2   0x080001a2   0x00000000   Code   RO         5716    .ARM.Collect$$libinit$$0000001D  c_w.l(libinit2.o)
    0x080001a2   0x080001a2   0x00000000   Code   RO         5718    .ARM.Collect$$libinit$$0000001F  c_w.l(libinit2.o)
    0x080001a2   0x080001a2   0x00000000   Code   RO         5720    .ARM.Collect$$libinit$$00000021  c_w.l(libinit2.o)
    0x080001a2   0x080001a2   0x00000000   Code   RO         5722    .ARM.Collect$$libinit$$00000023  c_w.l(libinit2.o)
    0x080001a2   0x080001a2   0x00000000   Code   RO         5724    .ARM.Collect$$libinit$$00000025  c_w.l(libinit2.o)
    0x080001a2   0x080001a2   0x00000000   Code   RO         5728    .ARM.Collect$$libinit$$0000002C  c_w.l(libinit2.o)
    0x080001a2   0x080001a2   0x00000000   Code   RO         5730    .ARM.Collect$$libinit$$0000002E  c_w.l(libinit2.o)
    0x080001a2   0x080001a2   0x00000000   Code   RO         5732    .ARM.Collect$$libinit$$00000030  c_w.l(libinit2.o)
    0x080001a2   0x080001a2   0x00000000   Code   RO         5734    .ARM.Collect$$libinit$$00000032  c_w.l(libinit2.o)
    0x080001a2   0x080001a2   0x00000002   Code   RO         5735    .ARM.Collect$$libinit$$00000033  c_w.l(libinit2.o)
    0x080001a4   0x080001a4   0x00000002   Code   RO         5755    .ARM.Collect$$libshutdown$$00000000  c_w.l(libshutdown.o)
    0x080001a6   0x080001a6   0x00000000   Code   RO         5768    .ARM.Collect$$libshutdown$$00000002  c_w.l(libshutdown2.o)
    0x080001a6   0x080001a6   0x00000000   Code   RO         5770    .ARM.Collect$$libshutdown$$00000004  c_w.l(libshutdown2.o)
    0x080001a6   0x080001a6   0x00000000   Code   RO         5772    .ARM.Collect$$libshutdown$$00000006  c_w.l(libshutdown2.o)
    0x080001a6   0x080001a6   0x00000000   Code   RO         5775    .ARM.Collect$$libshutdown$$00000009  c_w.l(libshutdown2.o)
    0x080001a6   0x080001a6   0x00000000   Code   RO         5778    .ARM.Collect$$libshutdown$$0000000C  c_w.l(libshutdown2.o)
    0x080001a6   0x080001a6   0x00000000   Code   RO         5780    .ARM.Collect$$libshutdown$$0000000E  c_w.l(libshutdown2.o)
    0x080001a6   0x080001a6   0x00000000   Code   RO         5783    .ARM.Collect$$libshutdown$$00000011  c_w.l(libshutdown2.o)
    0x080001a6   0x080001a6   0x00000002   Code   RO         5784    .ARM.Collect$$libshutdown$$00000012  c_w.l(libshutdown2.o)
    0x080001a8   0x080001a8   0x00000000   Code   RO         5658    .ARM.Collect$$rtentry$$00000000  c_w.l(__rtentry.o)
    0x080001a8   0x080001a8   0x00000000   Code   RO         5662    .ARM.Collect$$rtentry$$00000002  c_w.l(__rtentry2.o)
    0x080001a8   0x080001a8   0x00000006   Code   RO         5674    .ARM.Collect$$rtentry$$00000004  c_w.l(__rtentry4.o)
    0x080001ae   0x080001ae   0x00000000   Code   RO         5664    .ARM.Collect$$rtentry$$00000009  c_w.l(__rtentry2.o)
    0x080001ae   0x080001ae   0x00000004   Code   RO         5665    .ARM.Collect$$rtentry$$0000000A  c_w.l(__rtentry2.o)
    0x080001b2   0x080001b2   0x00000000   Code   RO         5667    .ARM.Collect$$rtentry$$0000000C  c_w.l(__rtentry2.o)
    0x080001b2   0x080001b2   0x00000008   Code   RO         5668    .ARM.Collect$$rtentry$$0000000D  c_w.l(__rtentry2.o)
    0x080001ba   0x080001ba   0x00000002   Code   RO         5689    .ARM.Collect$$rtexit$$00000000  c_w.l(rtexit.o)
    0x080001bc   0x080001bc   0x00000000   Code   RO         5737    .ARM.Collect$$rtexit$$00000002  c_w.l(rtexit2.o)
    0x080001bc   0x080001bc   0x00000004   Code   RO         5738    .ARM.Collect$$rtexit$$00000003  c_w.l(rtexit2.o)
    0x080001c0   0x080001c0   0x00000006   Code   RO         5739    .ARM.Collect$$rtexit$$00000004  c_w.l(rtexit2.o)
    0x080001c6   0x080001c6   0x00000002   PAD
    0x080001c8   0x080001c8   0x00000004   Code   RO          756    .emb_text           main_bootloader.o
    0x080001cc   0x080001cc   0x00000040   Code   RO         2155    .text               startup_stm32f103xb.o
    0x0800020c   0x0800020c   0x00000026   Code   RO         5632    .text               c_w.l(llushr.o)
    0x08000232   0x08000232   0x00000058   Code   RO         5634    .text               c_w.l(memcmp.o)
    0x0800028a   0x0800028a   0x0000003e   Code   RO         5636    .text               c_w.l(strlen.o)
    0x080002c8   0x080002c8   0x00000096   Code   RO         5638    .text               c_w.l(strncmp.o)
    0x0800035e   0x0800035e   0x00000018   Code   RO         5640    .text               c_w.l(strcat.o)
    0x08000376   0x08000376   0x0000008a   Code   RO         5642    .text               c_w.l(rt_memcpy_v6.o)
    0x08000400   0x08000400   0x00000084   Code   RO         5644    .text               c_w.l(rt_memmove_v6.o)
    0x08000484   0x08000484   0x00000064   Code   RO         5646    .text               c_w.l(rt_memcpy_w.o)
    0x080004e8   0x080004e8   0x00000010   Code   RO         5648    .text               c_w.l(aeabi_memset.o)
    0x080004f8   0x080004f8   0x00000044   Code   RO         5650    .text               c_w.l(rt_memclr.o)
    0x0800053c   0x0800053c   0x0000004e   Code   RO         5652    .text               c_w.l(rt_memclr_w.o)
    0x0800058a   0x0800058a   0x00000006   Code   RO         5654    .text               c_w.l(heapauxi.o)
    0x08000590   0x08000590   0x0000007a   Code   RO         5659    .text               c_w.l(rt_memmove_w.o)
    0x0800060a   0x0800060a   0x0000004a   Code   RO         5676    .text               c_w.l(sys_stackheap_outer.o)
    0x08000654   0x08000654   0x00000012   Code   RO         5678    .text               c_w.l(exit.o)
    0x08000666   0x08000666   0x00000002   PAD
    0x08000668   0x08000668   0x00000008   Code   RO         5686    .text               c_w.l(libspace.o)
    0x08000670   0x08000670   0x0000000c   Code   RO         5747    .text               c_w.l(sys_exit.o)
    0x0800067c   0x0800067c   0x00000002   Code   RO         5758    .text               c_w.l(use_no_semi.o)
    0x0800067e   0x0800067e   0x00000000   Code   RO         5760    .text               c_w.l(indicate_semi.o)
    0x0800067e   0x0800067e   0x00000002   PAD
    0x08000680   0x08000680   0x00000028   Code   RO         4661    i.EP_Reset          usbd_stm32f103.o
    0x080006a8   0x080006a8   0x0000003c   Code   RO         4662    i.EP_Status         usbd_stm32f103.o
    0x080006e4   0x080006e4   0x0000002e   Code   RO         1882    i.EraseSector       flash.o
    0x08000712   0x08000712   0x00000002   PAD
    0x08000714   0x08000714   0x00000024   Code   RO         2609    i.FLASH_MassErase   stm32f1xx_hal_flash_ex.o
    0x08000738   0x08000738   0x00000024   Code   RO         2614    i.FLASH_PageErase   stm32f1xx_hal_flash_ex.o
    0x0800075c   0x0800075c   0x0000001c   Code   RO         2502    i.FLASH_Program_HalfWord  stm32f1xx_hal_flash.o
    0x08000778   0x08000778   0x00000044   Code   RO         2503    i.FLASH_SetErrorCode  stm32f1xx_hal_flash.o
    0x080007bc   0x080007bc   0x00000054   Code   RO         2504    i.FLASH_WaitForLastOperation  stm32f1xx_hal_flash.o
    0x08000810   0x08000810   0x00000016   Code   RO         2169    i.HAL_Delay         stm32f1xx_hal.o
    0x08000826   0x08000826   0x00000002   PAD
    0x08000828   0x08000828   0x000000a8   Code   RO         2615    i.HAL_FLASHEx_Erase  stm32f1xx_hal_flash_ex.o
    0x080008d0   0x080008d0   0x00000014   Code   RO         2508    i.HAL_FLASH_Lock    stm32f1xx_hal_flash.o
    0x080008e4   0x080008e4   0x00000084   Code   RO         2513    i.HAL_FLASH_Program  stm32f1xx_hal_flash.o
    0x08000968   0x08000968   0x00000024   Code   RO         2515    i.HAL_FLASH_Unlock  stm32f1xx_hal_flash.o
    0x0800098c   0x0800098c   0x000001c8   Code   RO         2701    i.HAL_GPIO_Init     stm32f1xx_hal_gpio.o
    0x08000b54   0x08000b54   0x0000000a   Code   RO         2705    i.HAL_GPIO_WritePin  stm32f1xx_hal_gpio.o
    0x08000b5e   0x08000b5e   0x00000002   PAD
    0x08000b60   0x08000b60   0x0000002c   Code   RO         2093    i.HAL_GetTick       sdk.o
    0x08000b8c   0x08000b8c   0x00000024   Code   RO         2175    i.HAL_Init          stm32f1xx_hal.o
    0x08000bb0   0x08000bb0   0x000000a4   Code   RO         2095    i.HAL_InitTick      sdk.o
    0x08000c54   0x08000c54   0x00000002   Code   RO         2178    i.HAL_MspInit       stm32f1xx_hal.o
    0x08000c56   0x08000c56   0x00000002   PAD
    0x08000c58   0x08000c58   0x00000024   Code   RO         2309    i.HAL_NVIC_SetPriorityGrouping  stm32f1xx_hal_cortex.o
    0x08000c7c   0x08000c7c   0x00000180   Code   RO         2809    i.HAL_RCC_ClockConfig  stm32f1xx_hal_rcc.o
    0x08000dfc   0x08000dfc   0x00000040   Code   RO         2813    i.HAL_RCC_GetClockConfig  stm32f1xx_hal_rcc.o
    0x08000e3c   0x08000e3c   0x00000088   Code   RO         2818    i.HAL_RCC_GetSysClockFreq  stm32f1xx_hal_rcc.o
    0x08000ec4   0x08000ec4   0x0000057a   Code   RO         2821    i.HAL_RCC_OscConfig  stm32f1xx_hal_rcc.o
    0x0800143e   0x0800143e   0x00000038   Code   RO         2954    i.HAL_TIM_Base_DeInit  stm32f1xx_hal_tim.o
    0x08001476   0x08001476   0x00000036   Code   RO         2956    i.HAL_TIM_Base_Init  stm32f1xx_hal_tim.o
    0x080014ac   0x080014ac   0x00000002   Code   RO         2957    i.HAL_TIM_Base_MspDeInit  stm32f1xx_hal_tim.o
    0x080014ae   0x080014ae   0x00000002   Code   RO         2958    i.HAL_TIM_Base_MspInit  stm32f1xx_hal_tim.o
    0x080014b0   0x080014b0   0x0000001a   Code   RO         2959    i.HAL_TIM_Base_Start  stm32f1xx_hal_tim.o
    0x080014ca   0x080014ca   0x000000d0   Code   RO         3022    i.HAL_TIM_PWM_ConfigChannel  stm32f1xx_hal_tim.o
    0x0800159a   0x0800159a   0x00000038   Code   RO         3023    i.HAL_TIM_PWM_DeInit  stm32f1xx_hal_tim.o
    0x080015d2   0x080015d2   0x00000036   Code   RO         3025    i.HAL_TIM_PWM_Init  stm32f1xx_hal_tim.o
    0x08001608   0x08001608   0x00000002   Code   RO         3026    i.HAL_TIM_PWM_MspDeInit  stm32f1xx_hal_tim.o
    0x0800160a   0x0800160a   0x00000002   Code   RO         3027    i.HAL_TIM_PWM_MspInit  stm32f1xx_hal_tim.o
    0x0800160c   0x0800160c   0x00000030   Code   RO         3029    i.HAL_TIM_PWM_Start  stm32f1xx_hal_tim.o
    0x0800163c   0x0800163c   0x00000004   Code   RO          535    i.HardFault_Handler  hardfault_handler.o
    0x08001640   0x08001640   0x00000004   Code   RO         1883    i.Init              flash.o
    0x08001644   0x08001644   0x00000058   Code   RO         1884    i.ProgramPage       flash.o
    0x0800169c   0x0800169c   0x00000034   Code   RO         4935    i.SysTick_Handler   systick_handler.o
    0x080016d0   0x080016d0   0x00000068   Code   RO         4289    i.SystemCoreClockUpdate  system_stm32f1xx.o
    0x08001738   0x08001738   0x00000048   Code   RO         4290    i.SystemInit        system_stm32f1xx.o
    0x08001780   0x08001780   0x00000024   Code   RO          226    i.SystemReset       cortex_m.o
    0x080017a4   0x080017a4   0x00000064   Code   RO         3040    i.TIM_Base_SetConfig  stm32f1xx_hal_tim.o
    0x08001808   0x08001808   0x00000016   Code   RO         3041    i.TIM_CCxChannelCmd  stm32f1xx_hal_tim.o
    0x0800181e   0x0800181e   0x00000002   PAD
    0x08001820   0x08001820   0x00000058   Code   RO         3049    i.TIM_OC1_SetConfig  stm32f1xx_hal_tim.o
    0x08001878   0x08001878   0x0000005c   Code   RO         3050    i.TIM_OC2_SetConfig  stm32f1xx_hal_tim.o
    0x080018d4   0x080018d4   0x00000058   Code   RO         3051    i.TIM_OC3_SetConfig  stm32f1xx_hal_tim.o
    0x0800192c   0x0800192c   0x00000044   Code   RO         3052    i.TIM_OC4_SetConfig  stm32f1xx_hal_tim.o
    0x08001970   0x08001970   0x00000080   Code   RO         4331    i.USART2_IRQHandler  uart.o
    0x080019f0   0x080019f0   0x00000016   Code   RO         4664    i.USBD_ClrStallEP   usbd_stm32f103.o
    0x08001a06   0x08001a06   0x00000002   PAD
    0x08001a08   0x08001a08   0x00000090   Code   RO         4665    i.USBD_ConfigEP     usbd_stm32f103.o
    0x08001a98   0x08001a98   0x00000010   Code   RO         4666    i.USBD_Configure    usbd_stm32f103.o
    0x08001aa8   0x08001aa8   0x00000030   Code   RO         4667    i.USBD_Connect      usbd_stm32f103.o
    0x08001ad8   0x08001ad8   0x00000038   Code   RO         5246    i.USBD_DataInStage  usbd_core.o
    0x08001b10   0x08001b10   0x00000020   Code   RO         5247    i.USBD_DataOutStage  usbd_core.o
    0x08001b30   0x08001b30   0x00000002   Code   RO         4668    i.USBD_DirCtrlEP    usbd_stm32f103.o
    0x08001b32   0x08001b32   0x00000006   Code   RO         4669    i.USBD_DisableEP    usbd_stm32f103.o
    0x08001b38   0x08001b38   0x00000008   Code   RO         4670    i.USBD_EnableEP     usbd_stm32f103.o
    0x08001b40   0x08001b40   0x000001d4   Code   RO         5248    i.USBD_EndPoint0    usbd_core.o
    0x08001d14   0x08001d14   0x00000004   Code   RO         4431    i.USBD_EndPoint0_Out_CDC_ReqToIF  usb_config.o
    0x08001d18   0x08001d18   0x00000004   Code   RO         4435    i.USBD_EndPoint0_Out_HID_ReqToIF  usb_config.o
    0x08001d1c   0x08001d1c   0x00000004   Code   RO         4438    i.USBD_EndPoint0_Setup_CDC_ReqToIF  usb_config.o
    0x08001d20   0x08001d20   0x00000004   Code   RO         4442    i.USBD_EndPoint0_Setup_HID_ReqToIF  usb_config.o
    0x08001d24   0x08001d24   0x0000005c   Code   RO         5373    i.USBD_EndPoint0_Setup_MSC_ReqToIF  usbd_core_msc.o
    0x08001d80   0x08001d80   0x00000004   Code   RO         4443    i.USBD_EndPoint0_Setup_WebUSB_ReqToDevice  usb_config.o
    0x08001d84   0x08001d84   0x00000004   Code   RO         4444    i.USBD_EndPoint0_Setup_WinUSB_ReqToDevice  usb_config.o
    0x08001d88   0x08001d88   0x00000104   Code   RO         4672    i.USBD_Handler      usbd_stm32f103.o
    0x08001e8c   0x08001e8c   0x00000024   Code   RO         4673    i.USBD_Init         usbd_stm32f103.o
    0x08001eb0   0x08001eb0   0x00000058   Code   RO         5403    i.USBD_MSC_ATAPassThrough  usbd_msc.o
    0x08001f08   0x08001f08   0x00000054   Code   RO         5404    i.USBD_MSC_BulkIn   usbd_msc.o
    0x08001f5c   0x08001f5c   0x00000098   Code   RO         5405    i.USBD_MSC_BulkOut  usbd_msc.o
    0x08001ff4   0x08001ff4   0x00000054   Code   RO         5406    i.USBD_MSC_CheckMedia  usbd_msc.o
    0x08002048   0x08002048   0x00000058   Code   RO         5407    i.USBD_MSC_ClrStallEP  usbd_msc.o
    0x080020a0   0x080020a0   0x00000034   Code   RO         5408    i.USBD_MSC_DataInFormat  usbd_msc.o
    0x080020d4   0x080020d4   0x0000004c   Code   RO         5409    i.USBD_MSC_DataInTransfer  usbd_msc.o
    0x08002120   0x08002120   0x0000002c   Code   RO         5411    i.USBD_MSC_EP_BULKOUT_Event  usbd_msc.o
    0x0800214c   0x0800214c   0x0000001c   Code   RO         5412    i.USBD_MSC_EP_BULK_Event  usbd_msc.o
    0x08002168   0x08002168   0x000001f0   Code   RO         5413    i.USBD_MSC_GetCBW   usbd_msc.o
    0x08002358   0x08002358   0x00000010   Code   RO         5414    i.USBD_MSC_GetMaxLUN  usbd_msc.o
    0x08002368   0x08002368   0x0000005c   Code   RO         5415    i.USBD_MSC_Inquiry  usbd_msc.o
    0x080023c4   0x080023c4   0x0000001c   Code   RO         5416    i.USBD_MSC_MediaRemoval  usbd_msc.o
    0x080023e0   0x080023e0   0x000000d4   Code   RO         5417    i.USBD_MSC_MemoryRead  usbd_msc.o
    0x080024b4   0x080024b4   0x000000d4   Code   RO         5418    i.USBD_MSC_MemoryVerify  usbd_msc.o
    0x08002588   0x08002588   0x000000f0   Code   RO         5419    i.USBD_MSC_MemoryWrite  usbd_msc.o
    0x08002678   0x08002678   0x00000058   Code   RO         5420    i.USBD_MSC_ModeSense10  usbd_msc.o
    0x080026d0   0x080026d0   0x00000050   Code   RO         5421    i.USBD_MSC_ModeSense6  usbd_msc.o
    0x08002720   0x08002720   0x000000ac   Code   RO         5422    i.USBD_MSC_RWSetup  usbd_msc.o
    0x080027cc   0x080027cc   0x00000050   Code   RO         5423    i.USBD_MSC_ReadCapacity  usbd_msc.o
    0x0800281c   0x0800281c   0x0000006c   Code   RO         5424    i.USBD_MSC_ReadFormatCapacity  usbd_msc.o
    0x08002888   0x08002888   0x00000084   Code   RO         5425    i.USBD_MSC_RequestSense  usbd_msc.o
    0x0800290c   0x0800290c   0x00000020   Code   RO         5426    i.USBD_MSC_Reset    usbd_msc.o
    0x0800292c   0x0800292c   0x0000004c   Code   RO         5428    i.USBD_MSC_ServiceActionIn16  usbd_msc.o
    0x08002978   0x08002978   0x00000030   Code   RO         5429    i.USBD_MSC_SetCSW   usbd_msc.o
    0x080029a8   0x080029a8   0x0000002c   Code   RO         5430    i.USBD_MSC_SetStallEP  usbd_msc.o
    0x080029d4   0x080029d4   0x00000034   Code   RO         5431    i.USBD_MSC_StartStopUnit  usbd_msc.o
    0x08002a08   0x08002a08   0x00000010   Code   RO         5432    i.USBD_MSC_SynchronizeCache  usbd_msc.o
    0x08002a18   0x08002a18   0x0000004c   Code   RO         5433    i.USBD_MSC_TestUnitReady  usbd_msc.o
    0x08002a64   0x08002a64   0x00000002   Code   RO         4445    i.USBD_RTX_TaskInit  usb_config.o
    0x08002a66   0x08002a66   0x00000002   PAD
    0x08002a68   0x08002a68   0x0000004c   Code   RO         4675    i.USBD_ReadEP       usbd_stm32f103.o
    0x08002ab4   0x08002ab4   0x00000004   Code   RO         5374    i.USBD_ReqClrFeature_MSC  usbd_core_msc.o
    0x08002ab8   0x08002ab8   0x0000016c   Code   RO         5249    i.USBD_ReqGetDescriptor  usbd_core.o
    0x08002c24   0x08002c24   0x00000004   Code   RO         4446    i.USBD_ReqGetDescriptor_HID  usb_config.o
    0x08002c28   0x08002c28   0x0000007c   Code   RO         5250    i.USBD_ReqGetStatus  usbd_core.o
    0x08002ca4   0x08002ca4   0x000000a0   Code   RO         5251    i.USBD_ReqSetClrFeature  usbd_core.o
    0x08002d44   0x08002d44   0x00000188   Code   RO         5252    i.USBD_ReqSetConfiguration  usbd_core.o
    0x08002ecc   0x08002ecc   0x0000012c   Code   RO         5253    i.USBD_ReqSetInterface  usbd_core.o
    0x08002ff8   0x08002ff8   0x000000b0   Code   RO         4676    i.USBD_Reset        usbd_stm32f103.o
    0x080030a8   0x080030a8   0x00000004   Code   RO         4677    i.USBD_ResetEP      usbd_stm32f103.o
    0x080030ac   0x080030ac   0x00000014   Code   RO         4679    i.USBD_SetAddress   usbd_stm32f103.o
    0x080030c0   0x080030c0   0x00000008   Code   RO         4680    i.USBD_SetStallEP   usbd_stm32f103.o
    0x080030c8   0x080030c8   0x00000010   Code   RO         5254    i.USBD_SetupStage   usbd_core.o
    0x080030d8   0x080030d8   0x00000010   Code   RO          757    i.USBD_SignalHandler  main_bootloader.o
    0x080030e8   0x080030e8   0x0000000a   Code   RO         5255    i.USBD_StatusInStage  usbd_core.o
    0x080030f2   0x080030f2   0x00000002   PAD
    0x080030f4   0x080030f4   0x00000014   Code   RO         5256    i.USBD_StatusOutStage  usbd_core.o
    0x08003108   0x08003108   0x00000018   Code   RO         4681    i.USBD_Suspend      usbd_stm32f103.o
    0x08003120   0x08003120   0x00000010   Code   RO         4682    i.USBD_WakeUp       usbd_stm32f103.o
    0x08003130   0x08003130   0x00000002   Code   RO         4683    i.USBD_WakeUpCfg    usbd_stm32f103.o
    0x08003132   0x08003132   0x00000002   PAD
    0x08003134   0x08003134   0x00000064   Code   RO         4684    i.USBD_WriteEP      usbd_stm32f103.o
    0x08003198   0x08003198   0x000000a4   Code   RO         4685    i.USB_LP_CAN1_RX0_IRQHandler  usbd_stm32f103.o
    0x0800323c   0x0800323c   0x00000004   Code   RO         1885    i.UnInit            flash.o
    0x08003240   0x08003240   0x0000001a   Code   RO         4686    i.__NVIC_EnableIRQ  usbd_stm32f103.o
    0x0800325a   0x0800325a   0x00000002   PAD
    0x0800325c   0x0800325c   0x000000ac   Code   RO          536    i._fault_handler    hardfault_handler.o
    0x08003308   0x08003308   0x00000042   Code   RO          882    i._util_assert      util.o
    0x0800334a   0x0800334a   0x00000002   Code   RO          759    i.board_bootloader_init  main_bootloader.o
    0x0800334c   0x0800334c   0x00000002   Code   RO         1418    i.board_vfs_stream_closed_hook  vfs_manager.o
    0x0800334e   0x0800334e   0x00000002   PAD
    0x08003350   0x08003350   0x00000060   Code   RO         1419    i.build_filesystem  vfs_manager.o
    0x080033b0   0x080033b0   0x00000018   Code   RO         1420    i.changing_state    vfs_manager.o
    0x080033c8   0x080033c8   0x0000001a   Code   RO           71    i.circ_buf_count_free  circ_buf.o
    0x080033e2   0x080033e2   0x0000001e   Code   RO           72    i.circ_buf_count_used  circ_buf.o
    0x08003400   0x08003400   0x0000005c   Code   RO           75    i.circ_buf_pop      circ_buf.o
    0x0800345c   0x0800345c   0x0000005c   Code   RO           77    i.circ_buf_push     circ_buf.o
    0x080034b8   0x080034b8   0x0000002e   Code   RO           79    i.circ_buf_write    circ_buf.o
    0x080034e6   0x080034e6   0x00000004   Code   RO         1018    i.close_bin         file_stream.o
    0x080034ea   0x080034ea   0x00000004   Code   RO         1019    i.close_hex         file_stream.o
    0x080034ee   0x080034ee   0x00000004   Code   RO         5123    i.config_get_auto_rst  settings_rom_stub.o
    0x080034f2   0x080034f2   0x00000004   Code   RO         5124    i.config_get_automation_allowed  settings_rom_stub.o
    0x080034f6   0x080034f6   0x00000004   Code   RO         5125    i.config_get_detect_incompatible_target  settings_rom_stub.o
    0x080034fa   0x080034fa   0x00000004   Code   RO         5126    i.config_get_overflow_detect  settings_rom_stub.o
    0x080034fe   0x080034fe   0x00000002   PAD
    0x08003500   0x08003500   0x00000098   Code   RO         5023    i.config_init       settings.o
    0x08003598   0x08003598   0x00000024   Code   RO         5024    i.config_ram_add_hexdump  settings.o
    0x080035bc   0x080035bc   0x0000001c   Code   RO         5025    i.config_ram_clear_assert  settings.o
    0x080035d8   0x080035d8   0x0000006c   Code   RO         5026    i.config_ram_get_assert  settings.o
    0x08003644   0x08003644   0x0000001c   Code   RO         5028    i.config_ram_get_hexdumps  settings.o
    0x08003660   0x08003660   0x00000010   Code   RO         5030    i.config_ram_get_initial_hold_in_bl  settings.o
    0x08003670   0x08003670   0x00000014   Code   RO         5031    i.config_ram_get_page_erase  settings.o
    0x08003684   0x08003684   0x00000044   Code   RO         5032    i.config_ram_set_assert  settings.o
    0x080036c8   0x080036c8   0x0000000c   Code   RO         5033    i.config_ram_set_disable_msd  settings.o
    0x080036d4   0x080036d4   0x0000000c   Code   RO         5035    i.config_ram_set_page_erase  settings.o
    0x080036e0   0x080036e0   0x00000002   Code   RO         5127    i.config_rom_init   settings_rom_stub.o
    0x080036e2   0x080036e2   0x00000002   Code   RO         5128    i.config_set_auto_rst  settings_rom_stub.o
    0x080036e4   0x080036e4   0x00000002   Code   RO         5129    i.config_set_automation_allowed  settings_rom_stub.o
    0x080036e6   0x080036e6   0x00000002   Code   RO         5130    i.config_set_detect_incompatible_target  settings_rom_stub.o
    0x080036e8   0x080036e8   0x00000002   Code   RO         5131    i.config_set_overflow_detect  settings_rom_stub.o
    0x080036ea   0x080036ea   0x00000002   PAD
    0x080036ec   0x080036ec   0x00000050   Code   RO          261    i.crc32             crc32.o
    0x0800373c   0x0800373c   0x00000012   Code   RO         1020    i.detect_bin        file_stream.o
    0x0800374e   0x0800374e   0x0000000e   Code   RO         1021    i.detect_hex        file_stream.o
    0x0800375c   0x0800375c   0x0000006c   Code   RO         1304    i.erase_chip        iap_flash_intf.o
    0x080037c8   0x080037c8   0x000000a4   Code   RO         1305    i.erase_sector      iap_flash_intf.o
    0x0800386c   0x0800386c   0x00000006   Code   RO         1306    i.erase_sector_size  iap_flash_intf.o
    0x08003872   0x08003872   0x00000002   PAD
    0x08003874   0x08003874   0x00000030   Code   RO          403    i.error_get_string  error.o
    0x080038a4   0x080038a4   0x00000014   Code   RO          404    i.error_get_type    error.o
    0x080038b8   0x080038b8   0x00000134   Code   RO         1605    i.expand_info       vfs_user.o
    0x080039ec   0x080039ec   0x0000004a   Code   RO         1606    i.expand_string_in_region  vfs_user.o
    0x08003a36   0x08003a36   0x00000002   Code   RO         1752    i.file_change_cb_stub  virtual_fs.o
    0x08003a38   0x08003a38   0x000000d0   Code   RO         1421    i.file_change_handler  vfs_manager.o
    0x08003b08   0x08003b08   0x00000080   Code   RO         1422    i.file_data_handler  vfs_manager.o
    0x08003b88   0x08003b88   0x00000078   Code   RO         1753    i.filename_valid    virtual_fs.o
    0x08003c00   0x08003c00   0x00000044   Code   RO         1132    i.flash_decoder_close  flash_decoder.o
    0x08003c44   0x08003c44   0x00000070   Code   RO         1133    i.flash_decoder_detect_type  flash_decoder.o
    0x08003cb4   0x08003cb4   0x0000008c   Code   RO         1134    i.flash_decoder_get_flash  flash_decoder.o
    0x08003d40   0x08003d40   0x00000068   Code   RO         1135    i.flash_decoder_is_at_end  flash_decoder.o
    0x08003da8   0x08003da8   0x00000044   Code   RO         1136    i.flash_decoder_open  flash_decoder.o
    0x08003dec   0x08003dec   0x00000004   Code   RO         1137    i.flash_decoder_validate_target_image  flash_decoder.o
    0x08003df0   0x08003df0   0x0000014c   Code   RO         1138    i.flash_decoder_write  flash_decoder.o
    0x08003f3c   0x08003f3c   0x00000012   Code   RO          443    i.flash_erase_sector  flash_hal.o
    0x08003f4e   0x08003f4e   0x00000020   Code   RO          444    i.flash_is_readable  flash_hal.o
    0x08003f6e   0x08003f6e   0x00000002   PAD
    0x08003f70   0x08003f70   0x0000010c   Code   RO         1245    i.flash_manager_data  flash_manager.o
    0x0800407c   0x0800407c   0x00000090   Code   RO         1246    i.flash_manager_init  flash_manager.o
    0x0800410c   0x0800410c   0x00000068   Code   RO         1248    i.flash_manager_uninit  flash_manager.o
    0x08004174   0x08004174   0x00000012   Code   RO          445    i.flash_program_page  flash_hal.o
    0x08004186   0x08004186   0x00000002   PAD
    0x08004188   0x08004188   0x00000044   Code   RO         1249    i.flush_current_block  flash_manager.o
    0x080041cc   0x080041cc   0x00000024   Code   RO         5187    i.get_board_id      target_board.o
    0x080041f0   0x080041f0   0x00000024   Code   RO         5188    i.get_family_id     target_board.o
    0x08004214   0x08004214   0x0000000a   Code   RO         1607    i.get_file_size     vfs_user.o
    0x0800421e   0x0800421e   0x00000004   Code   RO         1934    i.gpio_get_reset_btn_fwrd  gpio.o
    0x08004222   0x08004222   0x00000002   PAD
    0x08004224   0x08004224   0x00000010   Code   RO         1935    i.gpio_get_reset_btn_no_fwrd  gpio.o
    0x08004234   0x08004234   0x0000016c   Code   RO         1936    i.gpio_init         gpio.o
    0x080043a0   0x080043a0   0x00000018   Code   RO         1938    i.gpio_set_cdc_led  gpio.o
    0x080043b8   0x080043b8   0x00000018   Code   RO         1939    i.gpio_set_hid_led  gpio.o
    0x080043d0   0x080043d0   0x00000018   Code   RO         1940    i.gpio_set_msc_led  gpio.o
    0x080043e8   0x080043e8   0x00000044   Code   RO         1608    i.hex32_field_in_region  vfs_user.o
    0x0800442c   0x0800442c   0x0000000c   Code   RO          575    i.hex_to_ascii      info.o
    0x08004438   0x08004438   0x00000070   Code   RO          576    i.info_crc_compute  info.o
    0x080044a8   0x080044a8   0x00000008   Code   RO          577    i.info_get_board_id  info.o
    0x080044b0   0x080044b0   0x00000038   Code   RO          578    i.info_get_bootloader_present  info.o
    0x080044e8   0x080044e8   0x0000000c   Code   RO          582    i.info_get_crc_bootloader  info.o
    0x080044f4   0x080044f4   0x0000000c   Code   RO          584    i.info_get_crc_interface  info.o
    0x08004500   0x08004500   0x00000008   Code   RO          585    i.info_get_hic_id   info.o
    0x08004508   0x08004508   0x00000008   Code   RO          586    i.info_get_host_id  info.o
    0x08004510   0x08004510   0x00000038   Code   RO          587    i.info_get_interface_present  info.o
    0x08004548   0x08004548   0x00000014   Code   RO          588    i.info_get_interface_version  info.o
    0x0800455c   0x0800455c   0x00000008   Code   RO          589    i.info_get_mac      info.o
    0x08004564   0x08004564   0x00000008   Code   RO          590    i.info_get_target_id  info.o
    0x0800456c   0x0800456c   0x00000008   Code   RO          591    i.info_get_unique_id  info.o
    0x08004574   0x08004574   0x00000008   Code   RO          592    i.info_get_unique_id_string_descriptor  info.o
    0x0800457c   0x0800457c   0x00000008   Code   RO          593    i.info_get_version  info.o
    0x08004584   0x08004584   0x00000090   Code   RO          594    i.info_init         info.o
    0x08004614   0x08004614   0x0000005c   Code   RO         1307    i.init              iap_flash_intf.o
    0x08004670   0x08004670   0x00000044   Code   RO         1308    i.intercept_page_write  iap_flash_intf.o
    0x080046b4   0x080046b4   0x0000005c   Code   RO          760    i.main              main_bootloader.o
    0x08004710   0x08004710   0x00000010   Code   RO          761    i.main_blink_msc_led  main_bootloader.o
    0x08004720   0x08004720   0x00000128   Code   RO          762    i.main_task         main_bootloader.o
    0x08004848   0x08004848   0x00000004   Code   RO         1022    i.open_bin          file_stream.o
    0x0800484c   0x0800484c   0x0000001c   Code   RO         1023    i.open_hex          file_stream.o
    0x08004868   0x08004868   0x0000000a   Code   RO         4851    i.osDelay           cmsis_os2_port.o
    0x08004872   0x08004872   0x0000000a   Code   RO         4852    i.osKernelInitialize  cmsis_os2_port.o
    0x0800487c   0x0800487c   0x0000000a   Code   RO         4853    i.osKernelStart     cmsis_os2_port.o
    0x08004886   0x08004886   0x00000004   Code   RO         4854    i.osMutexAcquire    cmsis_os2_port.o
    0x0800488a   0x0800488a   0x00000004   Code   RO         4855    i.osMutexNew        cmsis_os2_port.o
    0x0800488e   0x0800488e   0x00000004   Code   RO         4856    i.osMutexRelease    cmsis_os2_port.o
    0x08004892   0x08004892   0x0000000e   Code   RO         4857    i.osThreadFlagsSet  cmsis_os2_port.o
    0x080048a0   0x080048a0   0x00000004   Code   RO         4858    i.osThreadFlagsWait  cmsis_os2_port.o
    0x080048a4   0x080048a4   0x00000004   Code   RO         4859    i.osThreadGetId     cmsis_os2_port.o
    0x080048a8   0x080048a8   0x0000000a   Code   RO         4860    i.osThreadNew       cmsis_os2_port.o
    0x080048b2   0x080048b2   0x0000000a   Code   RO         4861    i.osTimerNew        cmsis_os2_port.o
    0x080048bc   0x080048bc   0x0000000c   Code   RO         4862    i.osTimerStart      cmsis_os2_port.o
    0x080048c8   0x080048c8   0x000000d4   Code   RO         1941    i.output_clock_enable  gpio.o
    0x0800499c   0x0800499c   0x00000278   Code   RO         1381    i.parse_hex_blob    intelhex.o
    0x08004c14   0x08004c14   0x00000118   Code   RO         1309    i.program_page      iap_flash_intf.o
    0x08004d2c   0x08004d2c   0x00000006   Code   RO         1310    i.program_page_min_size  iap_flash_intf.o
    0x08004d32   0x08004d32   0x00000002   PAD
    0x08004d34   0x08004d34   0x00000054   Code   RO         1754    i.read_dir          virtual_fs.o
    0x08004d88   0x08004d88   0x00000020   Code   RO         1755    i.read_fat          virtual_fs.o
    0x08004da8   0x08004da8   0x00000154   Code   RO         1609    i.read_file_assert_txt  vfs_user.o
    0x08004efc   0x08004efc   0x00000012   Code   RO         1610    i.read_file_details_txt  vfs_user.o
    0x08004f0e   0x08004f0e   0x00000002   PAD
    0x08004f10   0x08004f10   0x000000d4   Code   RO         1611    i.read_file_fail_txt  vfs_user.o
    0x08004fe4   0x08004fe4   0x00000074   Code   RO         1612    i.read_file_mbed_htm  vfs_user.o
    0x08005058   0x08005058   0x00000020   Code   RO         1756    i.read_mbr          virtual_fs.o
    0x08005078   0x08005078   0x00000020   Code   RO         2065    i.read_unique_id    read_uid.o
    0x08005098   0x08005098   0x00000010   Code   RO         1757    i.read_zero         virtual_fs.o
    0x080050a8   0x080050a8   0x000000a4   Code   RO         1423    i.ready_for_state_change  vfs_manager.o
    0x0800514c   0x0800514c   0x00000030   Code   RO          263    i.reflect           crc32.o
    0x0800517c   0x0800517c   0x00000014   Code   RO          763    i.reset_button_pressed  main_bootloader.o
    0x08005190   0x08005190   0x00000028   Code   RO         1382    i.reset_hex_parser  intelhex.o
    0x080051b8   0x080051b8   0x00000094   Code   RO         2098    i.sdk_init          sdk.o
    0x0800524c   0x0800524c   0x00000020   Code   RO         1614    i.setting_in_region  vfs_user.o
    0x0800526c   0x0800526c   0x000000f0   Code   RO          596    i.setup_basics      info.o
    0x0800535c   0x0800535c   0x000000f0   Code   RO         1250    i.setup_next_sector  flash_manager.o
    0x0800544c   0x0800544c   0x00000030   Code   RO         4687    i.stat_enque        usbd_stm32f103.o
    0x0800547c   0x0800547c   0x00000038   Code   RO         1024    i.stream_close      file_stream.o
    0x080054b4   0x080054b4   0x00000060   Code   RO         1025    i.stream_open       file_stream.o
    0x08005514   0x08005514   0x00000030   Code   RO         1026    i.stream_start_identify  file_stream.o
    0x08005544   0x08005544   0x0000002c   Code   RO         1027    i.stream_thread_assert  file_stream.o
    0x08005570   0x08005570   0x00000030   Code   RO         1028    i.stream_type_from_name  file_stream.o
    0x080055a0   0x080055a0   0x00000068   Code   RO         1029    i.stream_write      file_stream.o
    0x08005608   0x08005608   0x00000060   Code   RO         1615    i.string_field_in_region  vfs_user.o
    0x08005668   0x08005668   0x00000030   Code   RO         1424    i.sync_assert_usb_thread  vfs_manager.o
    0x08005698   0x08005698   0x00000010   Code   RO         1425    i.sync_lock         vfs_manager.o
    0x080056a8   0x080056a8   0x0000000c   Code   RO         1426    i.sync_unlock       vfs_manager.o
    0x080056b4   0x080056b4   0x00000014   Code   RO         4936    i.sysTickEvtSet     systick_handler.o
    0x080056c8   0x080056c8   0x0000001c   Code   RO         4937    i.sysTickEvtWaitOr  systick_handler.o
    0x080056e4   0x080056e4   0x0000000c   Code   RO         4938    i.sysTickFreqSet    systick_handler.o
    0x080056f0   0x080056f0   0x00000034   Code   RO         4939    i.sysTickInit       systick_handler.o
    0x08005724   0x08005724   0x0000000c   Code   RO         4940    i.sysTickRegCallback  systick_handler.o
    0x08005730   0x08005730   0x0000000c   Code   RO         4941    i.sysTickRegMainFunc  systick_handler.o
    0x0800573c   0x0800573c   0x00000014   Code   RO         4942    i.sysTickStartMain  systick_handler.o
    0x08005750   0x08005750   0x00000010   Code   RO         4944    i.sysTickWait       systick_handler.o
    0x08005760   0x08005760   0x00000010   Code   RO         1311    i.target_flash_busy  iap_flash_intf.o
    0x08005770   0x08005770   0x00000010   Code   RO          977    i.test_range        validation.o
    0x08005780   0x08005780   0x00000034   Code   RO          764    i.timer_task_30mS   main_bootloader.o
    0x080057b4   0x080057b4   0x00000098   Code   RO         1427    i.transfer_stream_data  vfs_manager.o
    0x0800584c   0x0800584c   0x00000078   Code   RO         1428    i.transfer_stream_open  vfs_manager.o
    0x080058c4   0x080058c4   0x00000074   Code   RO         1429    i.transfer_update_file_info  vfs_manager.o
    0x08005938   0x08005938   0x00000138   Code   RO         1430    i.transfer_update_state  vfs_manager.o
    0x08005a70   0x08005a70   0x00000034   Code   RO         1616    i.uint32_field_in_region  vfs_user.o
    0x08005aa4   0x08005aa4   0x00000034   Code   RO         1312    i.uninit            iap_flash_intf.o
    0x08005ad8   0x08005ad8   0x000002b8   Code   RO         1617    i.update_details_txt_file  vfs_user.o
    0x08005d90   0x08005d90   0x0000006c   Code   RO         4448    i.usbd_class_init   usb_config.o
    0x08005dfc   0x08005dfc   0x00000010   Code   RO         5257    i.usbd_configured   usbd_core.o
    0x08005e0c   0x08005e0c   0x00000004   Code   RO         5258    i.usbd_connect      usbd_core.o
    0x08005e10   0x08005e10   0x0000001c   Code   RO         5259    i.usbd_init         usbd_core.o
    0x08005e2c   0x08005e2c   0x0000002c   Code   RO         1431    i.usbd_msc_init     vfs_manager.o
    0x08005e58   0x08005e58   0x00000030   Code   RO         1432    i.usbd_msc_read_sect  vfs_manager.o
    0x08005e88   0x08005e88   0x00000002   Code   RO         5436    i.usbd_msc_start_stop  usbd_msc.o
    0x08005e8a   0x08005e8a   0x00000002   PAD
    0x08005e8c   0x08005e8c   0x0000005c   Code   RO         1433    i.usbd_msc_write_sect  vfs_manager.o
    0x08005ee8   0x08005ee8   0x00000024   Code   RO         5260    i.usbd_reset_core   usbd_core.o
    0x08005f0c   0x08005f0c   0x00000012   Code   RO          883    i.util_assert_clear  util.o
    0x08005f1e   0x08005f1e   0x00000032   Code   RO          885    i.util_write_hex32  util.o
    0x08005f50   0x08005f50   0x0000001c   Code   RO          886    i.util_write_hex8   util.o
    0x08005f6c   0x08005f6c   0x00000048   Code   RO          887    i.util_write_in_region  util.o
    0x08005fb4   0x08005fb4   0x00000028   Code   RO          889    i.util_write_string_in_region  util.o
    0x08005fdc   0x08005fdc   0x00000054   Code   RO          890    i.util_write_uint32  util.o
    0x08006030   0x08006030   0x0000002e   Code   RO          891    i.util_write_uint32_zp  util.o
    0x0800605e   0x0800605e   0x00000002   PAD
    0x08006060   0x08006060   0x00000024   Code   RO          978    i.validate_bin_nvic  validation.o
    0x08006084   0x08006084   0x0000007c   Code   RO          979    i.validate_bin_nvic_base  validation.o
    0x08006100   0x08006100   0x00000034   Code   RO          980    i.validate_hexfile  validation.o
    0x08006134   0x08006134   0x0000012c   Code   RO         1758    i.vfs_create_file   virtual_fs.o
    0x08006260   0x08006260   0x00000004   Code   RO         1759    i.vfs_file_get_attr  virtual_fs.o
    0x08006264   0x08006264   0x00000004   Code   RO         1760    i.vfs_file_get_size  virtual_fs.o
    0x08006268   0x08006268   0x0000002c   Code   RO         1761    i.vfs_file_get_start_sector  virtual_fs.o
    0x08006294   0x08006294   0x00000004   Code   RO         1762    i.vfs_file_set_attr  virtual_fs.o
    0x08006298   0x08006298   0x00000038   Code   RO         1763    i.vfs_get_total_size  virtual_fs.o
    0x080062d0   0x080062d0   0x0000016c   Code   RO         1764    i.vfs_init          virtual_fs.o
    0x0800643c   0x0800643c   0x00000024   Code   RO         1435    i.vfs_mngr_fs_remount  vfs_manager.o
    0x08006460   0x08006460   0x00000010   Code   RO         1436    i.vfs_mngr_get_transfer_status  vfs_manager.o
    0x08006470   0x08006470   0x00000030   Code   RO         1437    i.vfs_mngr_init     vfs_manager.o
    0x080064a0   0x080064a0   0x000000b4   Code   RO         1438    i.vfs_mngr_periodic  vfs_manager.o
    0x08006554   0x08006554   0x00000064   Code   RO         1765    i.vfs_read          virtual_fs.o
    0x080065b8   0x080065b8   0x0000000c   Code   RO         1766    i.vfs_set_file_change_callback  virtual_fs.o
    0x080065c4   0x080065c4   0x000000e8   Code   RO         1618    i.vfs_user_build_filesystem  vfs_user.o
    0x080066ac   0x080066ac   0x00000002   Code   RO         1619    i.vfs_user_build_filesystem_hook  vfs_user.o
    0x080066ae   0x080066ae   0x00000002   PAD
    0x080066b0   0x080066b0   0x0000001c   Code   RO         1620    i.vfs_user_disconnecting  vfs_user.o
    0x080066cc   0x080066cc   0x00000134   Code   RO         1621    i.vfs_user_file_change_handler  vfs_user.o
    0x08006800   0x08006800   0x00000004   Code   RO         1622    i.vfs_user_file_change_handler_hook  vfs_user.o
    0x08006804   0x08006804   0x00000004   Code   RO         1623    i.vfs_user_magic_file_hook  vfs_user.o
    0x08006808   0x08006808   0x00000068   Code   RO         1767    i.vfs_write         virtual_fs.o
    0x08006870   0x08006870   0x00000092   Code   RO         1030    i.write_bin         file_stream.o
    0x08006902   0x08006902   0x00000002   PAD
    0x08006904   0x08006904   0x000000c8   Code   RO         1768    i.write_dir         virtual_fs.o
    0x080069cc   0x080069cc   0x00000030   Code   RO         1769    i.write_fat         virtual_fs.o
    0x080069fc   0x080069fc   0x000000b0   Code   RO         1031    i.write_hex         file_stream.o
    0x08006aac   0x08006aac   0x00000002   Code   RO         1770    i.write_none        virtual_fs.o
    0x08006aae   0x08006aae   0x00000008   Data   RO            5    .constdata          stm32f103xb_bl.o
    0x08006ab6   0x08006ab6   0x00000002   PAD
    0x08006ab8   0x08006ab8   0x00000084   Data   RO            6    .constdata          stm32f103xb_bl.o
    0x08006b3c   0x08006b3c   0x000000a0   Data   RO          405    .constdata          error.o
    0x08006bdc   0x08006bdc   0x00000011   Data   RO          893    .constdata          util.o
    0x08006bed   0x08006bed   0x00000003   PAD
    0x08006bf0   0x08006bf0   0x00000004   Data   RO         1220    .constdata          flash_intf.o
    0x08006bf4   0x08006bf4   0x00000024   Data   RO         1314    .constdata          iap_flash_intf.o
    0x08006c18   0x08006c18   0x00000004   Data   RO         1315    .constdata          iap_flash_intf.o
    0x08006c1c   0x08006c1c   0x00000028   Data   RO         1440    .constdata          vfs_manager.o
    0x08006c44   0x08006c44   0x0000000b   Data   RO         1625    .constdata          vfs_user.o
    0x08006c4f   0x08006c4f   0x00000001   PAD
    0x08006c50   0x08006c50   0x000000ab   Data   RO         1626    .constdata          vfs_user.o
    0x08006cfb   0x08006cfb   0x00000001   PAD
    0x08006cfc   0x08006cfc   0x00000270   Data   RO         1772    .constdata          virtual_fs.o
    0x08006f6c   0x08006f6c   0x00000010   Data   RO         4291    .constdata          system_stm32f1xx.o
    0x08006f7c   0x08006f7c   0x00000001   Data   RO         4455    .constdata          usb_config.o
    0x08006f7d   0x08006f7d   0x00000001   Data   RO         4456    .constdata          usb_config.o
    0x08006f7e   0x08006f7e   0x00000001   Data   RO         4457    .constdata          usb_config.o
    0x08006f7f   0x08006f7f   0x00000001   Data   RO         4459    .constdata          usb_config.o
    0x08006f80   0x08006f80   0x00000001   Data   RO         4460    .constdata          usb_config.o
    0x08006f81   0x08006f81   0x00000001   Data   RO         4461    .constdata          usb_config.o
    0x08006f82   0x08006f82   0x00000004   Data   RO         4462    .constdata          usb_config.o
    0x08006f86   0x08006f86   0x00000002   Data   RO         4463    .constdata          usb_config.o
    0x08006f88   0x08006f88   0x00000004   Data   RO         4465    .constdata          usb_config.o
    0x08006f8c   0x08006f8c   0x00000004   Data   RO         4466    .constdata          usb_config.o
    0x08006f90   0x08006f90   0x00000004   Data   RO         4467    .constdata          usb_config.o
    0x08006f94   0x08006f94   0x00000004   Data   RO         4469    .constdata          usb_config.o
    0x08006f98   0x08006f98   0x00000004   Data   RO         4470    .constdata          usb_config.o
    0x08006f9c   0x08006f9c   0x00000040   Data   RO         4471    .constdata          usb_config.o
    0x08006fdc   0x08006fdc   0x00000004   Data   RO         4472    .constdata          usb_config.o
    0x08006fe0   0x08006fe0   0x00000004   Data   RO         4473    .constdata          usb_config.o
    0x08006fe4   0x08006fe4   0x00000004   Data   RO         4474    .constdata          usb_config.o
    0x08006fe8   0x08006fe8   0x00000012   Data   RO         4478    .constdata          usb_config.o
    0x08006ffa   0x08006ffa   0x00000001   Data   RO         4479    .constdata          usb_config.o
    0x08006ffb   0x08006ffb   0x00000001   Data   RO         4480    .constdata          usb_config.o
    0x08006ffc   0x08006ffc   0x00000001   Data   RO         4482    .constdata          usb_config.o
    0x08006ffd   0x08006ffd   0x00000001   PAD
    0x08006ffe   0x08006ffe   0x0000005a   Data   RO         4483    .constdata          usb_config.o
    0x08007058   0x08007058   0x000007b5   Data   RO          406    .conststring        error.o
    0x0800780d   0x0800780d   0x00000003   PAD
    0x08007810   0x08007810   0x0000025a   Data   RO         1627    .conststring        vfs_user.o
    0x08007a6a   0x08007a6a   0x00000002   PAD
    0x08007a6c   0x08007a6c   0x0000001c   Data   RO         4484    .conststring        usb_config.o
    0x08007a88   0x08007a88   0x00000020   Data   RO         5815    Region$$Table       anon$$obj.o


    Execution Region ER_IROM1_CRC (Exec base: 0x0800bbfc, Load base: 0x0800bbfc, Size: 0x00000004, Max: 0x00000004, ABSOLUTE, FIXED)

    Exec Addr    Load Addr    Size         Type   Attr      Idx    E Section Name        Object

    0x0800bbfc        -       0x00000004   Zero   RW            1    ER_IROM1_CRC.bss    anon$$obj.o


    Execution Region RW_IRAM1 (Exec base: 0x20000000, Load base: 0x08007aa8, Size: 0x00002630, Max: 0x00004f00, ABSOLUTE, COMPRESSED[0x00000068])

    Exec Addr    Load Addr    Size         Type   Attr      Idx    E Section Name        Object

    0x20000000   COMPRESSED   0x000001ac   Data   RW            7    .data               stm32f103xb_bl.o
    0x200001ac   COMPRESSED   0x00000004   Data   RW            8    .data               stm32f103xb_bl.o
    0x200001b0   COMPRESSED   0x00000028   Data   RW          407    .data               error.o
    0x200001d8   COMPRESSED   0x0000001f   Data   RW          598    .data               info.o
    0x200001f7   COMPRESSED   0x00000001   PAD
    0x200001f8   COMPRESSED   0x00000010   Data   RW          765    .data               main_bootloader.o
    0x20000208   COMPRESSED   0x0000002c   Data   RW         1033    .data               file_stream.o
    0x20000234   COMPRESSED   0x00000014   Data   RW         1140    .data               flash_decoder.o
    0x20000248   COMPRESSED   0x0000001c   Data   RW         1252    .data               flash_manager.o
    0x20000264   COMPRESSED   0x0000001c   Data   RW         1316    .data               iap_flash_intf.o
    0x20000280   COMPRESSED   0x00000010   Data   RW         1384    .data               intelhex.o
    0x20000290   COMPRESSED   0x00000010   Data   RW         1441    .data               vfs_manager.o
    0x200002a0   COMPRESSED   0x00000008   Data   RW         1628    .data               vfs_user.o
    0x200002a8   COMPRESSED   0x00000018   Data   RW         1773    .data               virtual_fs.o
    0x200002c0   COMPRESSED   0x00000004   Data   RW         2100    .data               sdk.o
    0x200002c4   COMPRESSED   0x00000004   Data   RW         4293    .data               system_stm32f1xx.o
    0x200002c8   COMPRESSED   0x00000002   Data   RW         4485    .data               usb_config.o
    0x200002ca   COMPRESSED   0x00000002   PAD
    0x200002cc   COMPRESSED   0x00000004   Data   RW         4486    .data               usb_config.o
    0x200002d0   COMPRESSED   0x00000002   Data   RW         4488    .data               usb_config.o
    0x200002d2   COMPRESSED   0x00000001   Data   RW         4490    .data               usb_config.o
    0x200002d3   COMPRESSED   0x00000001   PAD
    0x200002d4   COMPRESSED   0x00000014   Data   RW         4689    .data               usbd_stm32f103.o
    0x200002e8   COMPRESSED   0x00000018   Data   RW         4945    .data               systick_handler.o
    0x20000300   COMPRESSED   0x00000024   Data   RW         5261    .data               usbd_core.o
    0x20000324   COMPRESSED   0x00000034   Data   RW         5439    .data               usbd_msc.o
    0x20000358   COMPRESSED   0x00000004   Data   RW         5440    .data               usbd_msc.o
    0x2000035c        -       0x0000010d   Zero   RW          597    .bss                info.o
    0x20000469   COMPRESSED   0x00000003   PAD
    0x2000046c        -       0x00000104   Zero   RW         1032    .bss                file_stream.o
    0x20000570        -       0x00000030   Zero   RW         1139    .bss                flash_decoder.o
    0x200005a0        -       0x00000400   Zero   RW         1251    .bss                flash_manager.o
    0x200009a0        -       0x00000400   Zero   RW         1313    .bss                iap_flash_intf.o
    0x20000da0        -       0x00000025   Zero   RW         1383    .bss                intelhex.o
    0x20000dc5   COMPRESSED   0x00000003   PAD
    0x20000dc8        -       0x00000228   Zero   RW         1439    .bss                vfs_manager.o
    0x20000ff0        -       0x00000041   Zero   RW         1624    .bss                vfs_user.o
    0x20001031   COMPRESSED   0x00000003   PAD
    0x20001034        -       0x000008c0   Zero   RW         1771    .bss                virtual_fs.o
    0x200018f4        -       0x0000003c   Zero   RW         1943    .bss                gpio.o
    0x20001930        -       0x0000003c   Zero   RW         2099    .bss                sdk.o
    0x2000196c   COMPRESSED   0x00000004   PAD
    0x20001970        -       0x00000020   Zero   RW         2516    .bss                stm32f1xx_hal_flash.o
    0x20001990        -       0x00000420   Zero   RW         4342    .bss                uart.o
    0x20001db0        -       0x000000c8   Zero   RW         4452    .bss                usb_config.o
    0x20001e78        -       0x00000040   Zero   RW         4453    .bss                usb_config.o
    0x20001eb8        -       0x00000040   Zero   RW         4454    .bss                usb_config.o
    0x20001ef8        -       0x0000001c   Zero   RW         4688    .bss                usbd_stm32f103.o
    0x20001f14        -       0x0000008e   Zero   RW         5036    .bss                settings.o
    0x20001fa2        -       0x0000002c   Zero   RW         5438    .bss                usbd_msc.o
    0x20001fce   COMPRESSED   0x00000002   PAD
    0x20001fd0        -       0x00000060   Zero   RW         5687    .bss                c_w.l(libspace.o)
    0x20002030        -       0x00000200   Zero   RW         2153    HEAP                startup_stm32f103xb.o
    0x20002230        -       0x00000400   Zero   RW         2152    STACK               startup_stm32f103xb.o


    Execution Region RW_CONFIG (Exec base: 0x20004f00, Load base: 0x08007b10, Size: 0x00000090, Max: 0x00000100, ABSOLUTE, UNINIT)

    Exec Addr    Load Addr    Size         Type   Attr      Idx    E Section Name        Object

    0x20004f00        -       0x0000008e   Zero   RW         5037    cfgram              settings.o



  Load Region LR_CONFIG (Base: 0x0801fc00, Size: 0x00000000, Max: 0x00000400, ABSOLUTE)

    Execution Region ER_CONFIG (Exec base: 0x0801fc00, Load base: 0x0801fc00, Size: 0x00000000, Max: 0x00000400, ABSOLUTE, UNINIT)

    **** No section assigned to this execution region ****


==============================================================================

Image component sizes


      Code (inc. data)   RO Data    RW Data    ZI Data      Debug   Object Name

       286         20          0          0          0     436218   circ_buf.o
        96          0          0          0          0       7371   cmsis_os2_port.o
        36         10          0          0          0      25841   cortex_m.o
       128          4          0          0          0       2600   crc32.o
         0          0          0          0          0       4436   daplink_debug.o
        68         24       2133         40          0       3476   error.o
       790         84          0         44        260      15903   file_stream.o
       142         10          0          0          0       3320   flash.o
       828        100          0         20         48      11903   flash_decoder.o
        68          0          0          0          0       2942   flash_hal.o
         0          0          4          0          0       2210   flash_intf.o
       824         76          0         28       1024       5741   flash_manager.o
       668         72          0          0         60     425516   gpio.o
       176         12          0          0          0       6217   hardfault_handler.o
       792        122         40         28       1024      10228   iap_flash_intf.o
       728        112          0         31        269      16760   info.o
       672         32          0         16         37       5076   intelhex.o
       498         40          0         16          0      10243   main_bootloader.o
        32          6          0          0          0       1161   read_uid.o
       356         38          0          4         60       3423   sdk.o
       480         56          0          0        284       7876   settings.o
        26          0          0          0          0       4904   settings_rom_stub.o
        64         26        236          0       1536        900   startup_stm32f103xb.o
         0          0        140        432          0      11817   stm32f103xb_bl.o
        60          4          0          0          0       2737   stm32f1xx_hal.o
        36         10          0          0          0      26098   stm32f1xx_hal_cortex.o
       368         48          0          0         32       5462   stm32f1xx_hal_flash.o
       240         26          0          0          0       3873   stm32f1xx_hal_flash_ex.o
       466         34          0          0          0       3412   stm32f1xx_hal_gpio.o
      1986         74          0          0          0       5659   stm32f1xx_hal_rcc.o
       968         40          0          0          0      14050   stm32f1xx_hal_tim.o
       176         36         16          4          0       2255   system_stm32f1xx.o
       224         54          0         24          0      31078   systick_handler.o
        72          8          0          0          0       1067   target_board.o
         0          0          0          0          0       2083   target_default.o
       128         42          0          0       1056       3530   uart.o
       138         46        247          9        328      27594   usb_config.o
      2026        180          0         36          0      12030   usbd_core.o
        96         18          0          0          0       1180   usbd_core_msc.o
      2998        408          0         56         44      20261   usbd_msc.o
      1306        166          0         20         28      44541   usbd_stm32f103.o
       404          6         17          0          0      11076   util.o
       228         16          0          0          0       3532   validation.o
      1862        216         40         16        552      23976   vfs_manager.o
      2600        676        784          8         65      19895   vfs_user.o
      1528        190        624         24       2240      17979   virtual_fs.o

    ----------------------------------------------------------------------
     25714       3142       4326        860       8968    1309450   Object Totals
         0          0         32          0          4          0   (incl. Generated)
        46          0         13          4         17          0   (incl. Padding)

    ----------------------------------------------------------------------

      Code (inc. data)   RO Data    RW Data    ZI Data      Debug   Library Member Name

        90          0          0          0          0          0   __dczerorl2.o
         8          0          0          0          0         68   __main.o
         0          0          0          0          0          0   __rtentry.o
        12          0          0          0          0          0   __rtentry2.o
         6          0          0          0          0          0   __rtentry4.o
        52          8          0          0          0          0   __scatter.o
        28          0          0          0          0          0   __scatter_zi.o
        16          0          0          0          0         68   aeabi_memset.o
        18          0          0          0          0         80   exit.o
         6          0          0          0          0        152   heapauxi.o
         0          0          0          0          0          0   indicate_semi.o
         2          0          0          0          0          0   libinit.o
         2          0          0          0          0          0   libinit2.o
         2          0          0          0          0          0   libshutdown.o
         2          0          0          0          0          0   libshutdown2.o
         8          4          0          0         96         68   libspace.o
        38          0          0          0          0         68   llushr.o
        88          0          0          0          0         76   memcmp.o
        68          0          0          0          0         68   rt_memclr.o
        78          0          0          0          0         80   rt_memclr_w.o
       138          0          0          0          0         68   rt_memcpy_v6.o
       100          0          0          0          0         80   rt_memcpy_w.o
       132          0          0          0          0         68   rt_memmove_v6.o
       122          0          0          0          0         80   rt_memmove_w.o
         2          0          0          0          0          0   rtexit.o
        10          0          0          0          0          0   rtexit2.o
        24          0          0          0          0         68   strcat.o
        62          0          0          0          0         76   strlen.o
       150          0          0          0          0         80   strncmp.o
        12          4          0          0          0         68   sys_exit.o
        74          0          0          0          0         80   sys_stackheap_outer.o
         2          0          0          0          0         68   use_no_semi.o

    ----------------------------------------------------------------------
      1360         16          0          0         96       1464   Library Totals
         8          0          0          0          0          0   (incl. Padding)

    ----------------------------------------------------------------------

      Code (inc. data)   RO Data    RW Data    ZI Data      Debug   Library Name

      1352         16          0          0         96       1464   c_w.l

    ----------------------------------------------------------------------
      1360         16          0          0         96       1464   Library Totals

    ----------------------------------------------------------------------

==============================================================================


      Code (inc. data)   RO Data    RW Data    ZI Data      Debug   

     27074       3158       4326        860       9064    1293750   Grand Totals
     27074       3158       4326        104       9064    1293750   ELF Image Totals (compressed)
     27074       3158       4326        104          0          0   ROM Totals

==============================================================================

    Total RO  Size (Code + RO Data)                31400 (  30.66kB)
    Total RW  Size (RW Data + ZI Data)              9924 (   9.69kB)
    Total ROM Size (Code + RO Data + RW Data)      31504 (  30.77kB)

==============================================================================

